	.text
	.file	"test_enum.cpp"
	.globl	main                            # -- Begin function main
	.p2align	4, 0x90
	.type	main,@function
main:                                   # @main
	.cfi_startproc
# %bb.0:
	pushq	%rbp
	.cfi_def_cfa_offset 16
	.cfi_offset %rbp, -16
	movq	%rsp, %rbp
	.cfi_def_cfa_register %rbp
	subq	$96, %rsp
	movl	$0, -4(%rbp)
	movl	$1, -8(%rbp)
	leaq	.L.str(%rip), %rax
	movq	%rax, -88(%rbp)                 # 8-byte Spill
	movq	%rax, -16(%rbp)
	movq	$2, -24(%rbp)
	movl	-8(%rbp), %eax
	movl	%eax, -28(%rbp)
	movq	-24(%rbp), %rdi
	movq	-16(%rbp), %rsi
	leaq	-28(%rbp), %rdx
	callq	_ZSt7printlnIJiEEvSt19basic_format_stringIcJDpNSt13type_identityIT_E4typeEEEDpOS2_
	movq	-88(%rbp), %rax                 # 8-byte Reload
	movq	%rax, -40(%rbp)
	movq	$2, -48(%rbp)
	movl	-8(%rbp), %edi
	callq	_Z7to_char9OrderType
	movb	%al, -49(%rbp)
	movq	-48(%rbp), %rdi
	movq	-40(%rbp), %rsi
	leaq	-49(%rbp), %rdx
	callq	_ZSt7printlnIJcEEvSt19basic_format_stringIcJDpNSt13type_identityIT_E4typeEEEDpOS2_
	movq	-88(%rbp), %rax                 # 8-byte Reload
	movb	$83, -50(%rbp)
	movq	%rax, -64(%rbp)
	movq	$2, -72(%rbp)
	movb	-50(%rbp), %al
	movb	%al, -73(%rbp)
	movq	-72(%rbp), %rdi
	movq	-64(%rbp), %rsi
	leaq	-73(%rbp), %rdx
	callq	_ZSt7printlnIJcEEvSt19basic_format_stringIcJDpNSt13type_identityIT_E4typeEEEDpOS2_
	xorl	%eax, %eax
	addq	$96, %rsp
	popq	%rbp
	.cfi_def_cfa %rsp, 8
	retq
.Lfunc_end0:
	.size	main, .Lfunc_end0-main
	.cfi_endproc
                                        # -- End function
	.section	.text._ZSt7printlnIJiEEvSt19basic_format_stringIcJDpNSt13type_identityIT_E4typeEEEDpOS2_,"axG",@progbits,_ZSt7printlnIJiEEvSt19basic_format_stringIcJDpNSt13type_identityIT_E4typeEEEDpOS2_,comdat
	.weak	_ZSt7printlnIJiEEvSt19basic_format_stringIcJDpNSt13type_identityIT_E4typeEEEDpOS2_ # -- Begin function _ZSt7printlnIJiEEvSt19basic_format_stringIcJDpNSt13type_identityIT_E4typeEEEDpOS2_
	.p2align	4, 0x90
	.type	_ZSt7printlnIJiEEvSt19basic_format_stringIcJDpNSt13type_identityIT_E4typeEEEDpOS2_,@function
_ZSt7printlnIJiEEvSt19basic_format_stringIcJDpNSt13type_identityIT_E4typeEEEDpOS2_: # @_ZSt7printlnIJiEEvSt19basic_format_stringIcJDpNSt13type_identityIT_E4typeEEEDpOS2_
	.cfi_startproc
# %bb.0:
	pushq	%rbp
	.cfi_def_cfa_offset 16
	.cfi_offset %rbp, -16
	movq	%rsp, %rbp
	.cfi_def_cfa_register %rbp
	subq	$48, %rsp
	movq	%rdi, -16(%rbp)
	movq	%rsi, -8(%rbp)
	movq	%rdx, -24(%rbp)
	movq	stdout@GOTPCREL(%rip), %rax
	movq	(%rax), %rdi
	movq	-16(%rbp), %rax
	movq	%rax, -40(%rbp)
	movq	-8(%rbp), %rax
	movq	%rax, -32(%rbp)
	movq	-24(%rbp), %rcx
	movq	-40(%rbp), %rsi
	movq	-32(%rbp), %rdx
	callq	_ZSt7printlnIJiEEvP8_IO_FILESt19basic_format_stringIcJDpNSt13type_identityIT_E4typeEEEDpOS4_
	addq	$48, %rsp
	popq	%rbp
	.cfi_def_cfa %rsp, 8
	retq
.Lfunc_end1:
	.size	_ZSt7printlnIJiEEvSt19basic_format_stringIcJDpNSt13type_identityIT_E4typeEEEDpOS2_, .Lfunc_end1-_ZSt7printlnIJiEEvSt19basic_format_stringIcJDpNSt13type_identityIT_E4typeEEEDpOS2_
	.cfi_endproc
                                        # -- End function
	.section	.text._ZSt7printlnIJcEEvSt19basic_format_stringIcJDpNSt13type_identityIT_E4typeEEEDpOS2_,"axG",@progbits,_ZSt7printlnIJcEEvSt19basic_format_stringIcJDpNSt13type_identityIT_E4typeEEEDpOS2_,comdat
	.weak	_ZSt7printlnIJcEEvSt19basic_format_stringIcJDpNSt13type_identityIT_E4typeEEEDpOS2_ # -- Begin function _ZSt7printlnIJcEEvSt19basic_format_stringIcJDpNSt13type_identityIT_E4typeEEEDpOS2_
	.p2align	4, 0x90
	.type	_ZSt7printlnIJcEEvSt19basic_format_stringIcJDpNSt13type_identityIT_E4typeEEEDpOS2_,@function
_ZSt7printlnIJcEEvSt19basic_format_stringIcJDpNSt13type_identityIT_E4typeEEEDpOS2_: # @_ZSt7printlnIJcEEvSt19basic_format_stringIcJDpNSt13type_identityIT_E4typeEEEDpOS2_
	.cfi_startproc
# %bb.0:
	pushq	%rbp
	.cfi_def_cfa_offset 16
	.cfi_offset %rbp, -16
	movq	%rsp, %rbp
	.cfi_def_cfa_register %rbp
	subq	$48, %rsp
	movq	%rdi, -16(%rbp)
	movq	%rsi, -8(%rbp)
	movq	%rdx, -24(%rbp)
	movq	stdout@GOTPCREL(%rip), %rax
	movq	(%rax), %rdi
	movq	-16(%rbp), %rax
	movq	%rax, -40(%rbp)
	movq	-8(%rbp), %rax
	movq	%rax, -32(%rbp)
	movq	-24(%rbp), %rcx
	movq	-40(%rbp), %rsi
	movq	-32(%rbp), %rdx
	callq	_ZSt7printlnIJcEEvP8_IO_FILESt19basic_format_stringIcJDpNSt13type_identityIT_E4typeEEEDpOS4_
	addq	$48, %rsp
	popq	%rbp
	.cfi_def_cfa %rsp, 8
	retq
.Lfunc_end2:
	.size	_ZSt7printlnIJcEEvSt19basic_format_stringIcJDpNSt13type_identityIT_E4typeEEEDpOS2_, .Lfunc_end2-_ZSt7printlnIJcEEvSt19basic_format_stringIcJDpNSt13type_identityIT_E4typeEEEDpOS2_
	.cfi_endproc
                                        # -- End function
	.section	.text._Z7to_char9OrderType,"axG",@progbits,_Z7to_char9OrderType,comdat
	.weak	_Z7to_char9OrderType            # -- Begin function _Z7to_char9OrderType
	.p2align	4, 0x90
	.type	_Z7to_char9OrderType,@function
_Z7to_char9OrderType:                   # @_Z7to_char9OrderType
	.cfi_startproc
# %bb.0:
	pushq	%rbp
	.cfi_def_cfa_offset 16
	.cfi_offset %rbp, -16
	movq	%rsp, %rbp
	.cfi_def_cfa_register %rbp
	movl	%edi, -4(%rbp)
	movl	-4(%rbp), %ecx
	movb	$66, %al
	movb	$83, %dl
	movb	%dl, -6(%rbp)                   # 1-byte Spill
	cmpl	$0, %ecx
	movb	%al, -5(%rbp)                   # 1-byte Spill
	je	.LBB3_2
# %bb.1:
	movb	-6(%rbp), %al                   # 1-byte Reload
	movb	%al, -5(%rbp)                   # 1-byte Spill
.LBB3_2:
	movb	-5(%rbp), %al                   # 1-byte Reload
	movsbl	%al, %eax
	popq	%rbp
	.cfi_def_cfa %rsp, 8
	retq
.Lfunc_end3:
	.size	_Z7to_char9OrderType, .Lfunc_end3-_Z7to_char9OrderType
	.cfi_endproc
                                        # -- End function
	.section	.text._ZSt7printlnIJiEEvP8_IO_FILESt19basic_format_stringIcJDpNSt13type_identityIT_E4typeEEEDpOS4_,"axG",@progbits,_ZSt7printlnIJiEEvP8_IO_FILESt19basic_format_stringIcJDpNSt13type_identityIT_E4typeEEEDpOS4_,comdat
	.weak	_ZSt7printlnIJiEEvP8_IO_FILESt19basic_format_stringIcJDpNSt13type_identityIT_E4typeEEEDpOS4_ # -- Begin function _ZSt7printlnIJiEEvP8_IO_FILESt19basic_format_stringIcJDpNSt13type_identityIT_E4typeEEEDpOS4_
	.p2align	4, 0x90
	.type	_ZSt7printlnIJiEEvP8_IO_FILESt19basic_format_stringIcJDpNSt13type_identityIT_E4typeEEEDpOS4_,@function
_ZSt7printlnIJiEEvP8_IO_FILESt19basic_format_stringIcJDpNSt13type_identityIT_E4typeEEEDpOS4_: # @_ZSt7printlnIJiEEvP8_IO_FILESt19basic_format_stringIcJDpNSt13type_identityIT_E4typeEEEDpOS4_
.Lfunc_begin0:
	.cfi_startproc
	.cfi_personality 155, DW.ref.__gxx_personality_v0
	.cfi_lsda 27, .Lexception0
# %bb.0:
	pushq	%rbp
	.cfi_def_cfa_offset 16
	.cfi_offset %rbp, -16
	movq	%rsp, %rbp
	.cfi_def_cfa_register %rbp
	subq	$128, %rsp
	movq	%rsi, -16(%rbp)
	movq	%rdx, -8(%rbp)
	movq	%rdi, -24(%rbp)
	movq	%rcx, -32(%rbp)
	movq	-24(%rbp), %rax
	movq	%rax, -128(%rbp)                # 8-byte Spill
	leaq	.L.str.1(%rip), %rax
	movq	%rax, -40(%rbp)
	movq	$3, -48(%rbp)
	movups	-16(%rbp), %xmm0
	movaps	%xmm0, -96(%rbp)
	movq	-32(%rbp), %rcx
	movq	-96(%rbp), %rsi
	movq	-88(%rbp), %rdx
	leaq	-80(%rbp), %rdi
	movq	%rdi, -120(%rbp)                # 8-byte Spill
	callq	_ZSt6formatIJiEENSt7__cxx1112basic_stringIcSt11char_traitsIcESaIcEEESt19basic_format_stringIcJDpNSt13type_identityIT_E4typeEEEDpOS8_
	movq	-128(%rbp), %rdi                # 8-byte Reload
	movq	-120(%rbp), %rcx                # 8-byte Reload
	movq	-48(%rbp), %rsi
	movq	-40(%rbp), %rdx
.Ltmp0:
	callq	_ZSt5printIJNSt7__cxx1112basic_stringIcSt11char_traitsIcESaIcEEEEEvP8_IO_FILESt19basic_format_stringIcJDpNSt13type_identityIT_E4typeEEEDpOSA_
.Ltmp1:
	jmp	.LBB4_1
.LBB4_1:
	leaq	-80(%rbp), %rdi
	callq	_ZNSt7__cxx1112basic_stringIcSt11char_traitsIcESaIcEED2Ev
	addq	$128, %rsp
	popq	%rbp
	.cfi_def_cfa %rsp, 8
	retq
.LBB4_2:
	.cfi_def_cfa %rbp, 16
.Ltmp2:
	movq	%rax, %rcx
	movl	%edx, %eax
	movq	%rcx, -104(%rbp)
	movl	%eax, -108(%rbp)
	leaq	-80(%rbp), %rdi
	callq	_ZNSt7__cxx1112basic_stringIcSt11char_traitsIcESaIcEED2Ev
# %bb.3:
	movq	-104(%rbp), %rdi
	callq	_Unwind_Resume@PLT
.Lfunc_end4:
	.size	_ZSt7printlnIJiEEvP8_IO_FILESt19basic_format_stringIcJDpNSt13type_identityIT_E4typeEEEDpOS4_, .Lfunc_end4-_ZSt7printlnIJiEEvP8_IO_FILESt19basic_format_stringIcJDpNSt13type_identityIT_E4typeEEEDpOS4_
	.cfi_endproc
	.section	.gcc_except_table._ZSt7printlnIJiEEvP8_IO_FILESt19basic_format_stringIcJDpNSt13type_identityIT_E4typeEEEDpOS4_,"aG",@progbits,_ZSt7printlnIJiEEvP8_IO_FILESt19basic_format_stringIcJDpNSt13type_identityIT_E4typeEEEDpOS4_,comdat
	.p2align	2, 0x0
GCC_except_table4:
.Lexception0:
	.byte	255                             # @LPStart Encoding = omit
	.byte	255                             # @TType Encoding = omit
	.byte	1                               # Call site Encoding = uleb128
	.uleb128 .Lcst_end0-.Lcst_begin0
.Lcst_begin0:
	.uleb128 .Lfunc_begin0-.Lfunc_begin0    # >> Call Site 1 <<
	.uleb128 .Ltmp0-.Lfunc_begin0           #   Call between .Lfunc_begin0 and .Ltmp0
	.byte	0                               #     has no landing pad
	.byte	0                               #   On action: cleanup
	.uleb128 .Ltmp0-.Lfunc_begin0           # >> Call Site 2 <<
	.uleb128 .Ltmp1-.Ltmp0                  #   Call between .Ltmp0 and .Ltmp1
	.uleb128 .Ltmp2-.Lfunc_begin0           #     jumps to .Ltmp2
	.byte	0                               #   On action: cleanup
	.uleb128 .Ltmp1-.Lfunc_begin0           # >> Call Site 3 <<
	.uleb128 .Lfunc_end4-.Ltmp1             #   Call between .Ltmp1 and .Lfunc_end4
	.byte	0                               #     has no landing pad
	.byte	0                               #   On action: cleanup
.Lcst_end0:
	.p2align	2, 0x0
                                        # -- End function
	.section	.text._ZSt5printIJNSt7__cxx1112basic_stringIcSt11char_traitsIcESaIcEEEEEvP8_IO_FILESt19basic_format_stringIcJDpNSt13type_identityIT_E4typeEEEDpOSA_,"axG",@progbits,_ZSt5printIJNSt7__cxx1112basic_stringIcSt11char_traitsIcESaIcEEEEEvP8_IO_FILESt19basic_format_stringIcJDpNSt13type_identityIT_E4typeEEEDpOSA_,comdat
	.weak	_ZSt5printIJNSt7__cxx1112basic_stringIcSt11char_traitsIcESaIcEEEEEvP8_IO_FILESt19basic_format_stringIcJDpNSt13type_identityIT_E4typeEEEDpOSA_ # -- Begin function _ZSt5printIJNSt7__cxx1112basic_stringIcSt11char_traitsIcESaIcEEEEEvP8_IO_FILESt19basic_format_stringIcJDpNSt13type_identityIT_E4typeEEEDpOSA_
	.p2align	4, 0x90
	.type	_ZSt5printIJNSt7__cxx1112basic_stringIcSt11char_traitsIcESaIcEEEEEvP8_IO_FILESt19basic_format_stringIcJDpNSt13type_identityIT_E4typeEEEDpOSA_,@function
_ZSt5printIJNSt7__cxx1112basic_stringIcSt11char_traitsIcESaIcEEEEEvP8_IO_FILESt19basic_format_stringIcJDpNSt13type_identityIT_E4typeEEEDpOSA_: # @_ZSt5printIJNSt7__cxx1112basic_stringIcSt11char_traitsIcESaIcEEEEEvP8_IO_FILESt19basic_format_stringIcJDpNSt13type_identityIT_E4typeEEEDpOSA_
.Lfunc_begin1:
	.cfi_startproc
	.cfi_personality 155, DW.ref.__gxx_personality_v0
	.cfi_lsda 27, .Lexception1
# %bb.0:
	pushq	%rbp
	.cfi_def_cfa_offset 16
	.cfi_offset %rbp, -16
	movq	%rsp, %rbp
	.cfi_def_cfa_register %rbp
	subq	$192, %rsp
	movq	%rsi, -88(%rbp)
	movq	%rdx, -80(%rbp)
	movq	%rdi, -96(%rbp)
	movq	%rcx, -104(%rbp)
	movq	-104(%rbp), %rax
	movq	%rax, -72(%rbp)
	movq	-72(%rbp), %rax
	leaq	-64(%rbp), %rcx
	movq	%rcx, -8(%rbp)
	movq	%rax, -16(%rbp)
	movq	-8(%rbp), %rax
	movq	%rax, -184(%rbp)                # 8-byte Spill
	movq	-16(%rbp), %rdi
.Ltmp3:
	callq	_ZNSt8__format10_Arg_storeISt20basic_format_contextINS_10_Sink_iterIcEEcEJSt17basic_string_viewIcSt11char_traitsIcEEEE11_S_make_eltINSt7__cxx1112basic_stringIcS7_SaIcEEEEENS_10_Arg_valueIS4_EERT_
.Ltmp4:
	movq	%rdx, -176(%rbp)                # 8-byte Spill
	movq	%rax, -168(%rbp)                # 8-byte Spill
	jmp	.LBB5_2
.LBB5_1:
.Ltmp5:
	movq	%rax, %rdi
                                        # kill: def $eax killed $edx killed $rdx
	callq	__clang_call_terminate
.LBB5_2:
	movq	-184(%rbp), %rax                # 8-byte Reload
	movq	-176(%rbp), %rcx                # 8-byte Reload
	movq	-168(%rbp), %rdx                # 8-byte Reload
	movq	%rdx, (%rax)
	movq	%rcx, 8(%rax)
	movq	-64(%rbp), %rcx
	movq	-56(%rbp), %rax
	movq	%rcx, -128(%rbp)
	movq	%rax, -120(%rbp)
	movq	-96(%rbp), %rax
	movq	%rax, -192(%rbp)                # 8-byte Spill
	leaq	-88(%rbp), %rax
	movq	%rax, -40(%rbp)
	movq	-40(%rbp), %rax
	movups	(%rax), %xmm0
	movaps	%xmm0, -32(%rbp)
	movq	-32(%rbp), %rcx
	movq	-24(%rbp), %rax
	movq	%rcx, -144(%rbp)
	movq	%rax, -136(%rbp)
	leaq	-160(%rbp), %rdi
	leaq	-128(%rbp), %rsi
	callq	_ZNSt17basic_format_argsISt20basic_format_contextINSt8__format10_Sink_iterIcEEcEEC2IJSt17basic_string_viewIcSt11char_traitsIcEEEEERKNS1_10_Arg_storeIS4_JDpT_EEE
	movq	-192(%rbp), %rdi                # 8-byte Reload
	movq	-144(%rbp), %rsi
	movq	-136(%rbp), %rdx
	movq	-160(%rbp), %rcx
	movq	-152(%rbp), %r8
	callq	_ZSt14vprint_unicodeP8_IO_FILESt17basic_string_viewIcSt11char_traitsIcEESt17basic_format_argsISt20basic_format_contextINSt8__format10_Sink_iterIcEEcEE
	addq	$192, %rsp
	popq	%rbp
	.cfi_def_cfa %rsp, 8
	retq
.Lfunc_end5:
	.size	_ZSt5printIJNSt7__cxx1112basic_stringIcSt11char_traitsIcESaIcEEEEEvP8_IO_FILESt19basic_format_stringIcJDpNSt13type_identityIT_E4typeEEEDpOSA_, .Lfunc_end5-_ZSt5printIJNSt7__cxx1112basic_stringIcSt11char_traitsIcESaIcEEEEEvP8_IO_FILESt19basic_format_stringIcJDpNSt13type_identityIT_E4typeEEEDpOSA_
	.cfi_endproc
	.section	.gcc_except_table._ZSt5printIJNSt7__cxx1112basic_stringIcSt11char_traitsIcESaIcEEEEEvP8_IO_FILESt19basic_format_stringIcJDpNSt13type_identityIT_E4typeEEEDpOSA_,"aG",@progbits,_ZSt5printIJNSt7__cxx1112basic_stringIcSt11char_traitsIcESaIcEEEEEvP8_IO_FILESt19basic_format_stringIcJDpNSt13type_identityIT_E4typeEEEDpOSA_,comdat
	.p2align	2, 0x0
GCC_except_table5:
.Lexception1:
	.byte	255                             # @LPStart Encoding = omit
	.byte	155                             # @TType Encoding = indirect pcrel sdata4
	.uleb128 .Lttbase0-.Lttbaseref0
.Lttbaseref0:
	.byte	1                               # Call site Encoding = uleb128
	.uleb128 .Lcst_end1-.Lcst_begin1
.Lcst_begin1:
	.uleb128 .Ltmp3-.Lfunc_begin1           # >> Call Site 1 <<
	.uleb128 .Ltmp4-.Ltmp3                  #   Call between .Ltmp3 and .Ltmp4
	.uleb128 .Ltmp5-.Lfunc_begin1           #     jumps to .Ltmp5
	.byte	1                               #   On action: 1
	.uleb128 .Ltmp4-.Lfunc_begin1           # >> Call Site 2 <<
	.uleb128 .Lfunc_end5-.Ltmp4             #   Call between .Ltmp4 and .Lfunc_end5
	.byte	0                               #     has no landing pad
	.byte	0                               #   On action: cleanup
.Lcst_end1:
	.byte	1                               # >> Action Record 1 <<
                                        #   Catch TypeInfo 1
	.byte	0                               #   No further actions
	.p2align	2, 0x0
                                        # >> Catch TypeInfos <<
	.long	0                               # TypeInfo 1
.Lttbase0:
	.p2align	2, 0x0
                                        # -- End function
	.section	.text._ZSt6formatIJiEENSt7__cxx1112basic_stringIcSt11char_traitsIcESaIcEEESt19basic_format_stringIcJDpNSt13type_identityIT_E4typeEEEDpOS8_,"axG",@progbits,_ZSt6formatIJiEENSt7__cxx1112basic_stringIcSt11char_traitsIcESaIcEEESt19basic_format_stringIcJDpNSt13type_identityIT_E4typeEEEDpOS8_,comdat
	.weak	_ZSt6formatIJiEENSt7__cxx1112basic_stringIcSt11char_traitsIcESaIcEEESt19basic_format_stringIcJDpNSt13type_identityIT_E4typeEEEDpOS8_ # -- Begin function _ZSt6formatIJiEENSt7__cxx1112basic_stringIcSt11char_traitsIcESaIcEEESt19basic_format_stringIcJDpNSt13type_identityIT_E4typeEEEDpOS8_
	.p2align	4, 0x90
	.type	_ZSt6formatIJiEENSt7__cxx1112basic_stringIcSt11char_traitsIcESaIcEEESt19basic_format_stringIcJDpNSt13type_identityIT_E4typeEEEDpOS8_,@function
_ZSt6formatIJiEENSt7__cxx1112basic_stringIcSt11char_traitsIcESaIcEEESt19basic_format_stringIcJDpNSt13type_identityIT_E4typeEEEDpOS8_: # @_ZSt6formatIJiEENSt7__cxx1112basic_stringIcSt11char_traitsIcESaIcEEESt19basic_format_stringIcJDpNSt13type_identityIT_E4typeEEEDpOS8_
.Lfunc_begin2:
	.cfi_startproc
	.cfi_personality 155, DW.ref.__gxx_personality_v0
	.cfi_lsda 27, .Lexception2
# %bb.0:
	pushq	%rbp
	.cfi_def_cfa_offset 16
	.cfi_offset %rbp, -16
	movq	%rsp, %rbp
	.cfi_def_cfa_register %rbp
	subq	$208, %rsp
	movq	%rdi, -200(%rbp)                # 8-byte Spill
	movq	%rdi, %rax
	movq	%rax, -192(%rbp)                # 8-byte Spill
	movq	%rdi, -80(%rbp)
	movq	%rsi, -96(%rbp)
	movq	%rdx, -88(%rbp)
	movq	%rcx, -104(%rbp)
	leaq	-96(%rbp), %rax
	movq	%rax, -72(%rbp)
	movq	-72(%rbp), %rax
	movups	(%rax), %xmm0
	movaps	%xmm0, -64(%rbp)
	movq	-64(%rbp), %rcx
	movq	-56(%rbp), %rax
	movq	%rcx, -120(%rbp)
	movq	%rax, -112(%rbp)
	movq	-104(%rbp), %rax
	movq	%rax, -40(%rbp)
	movq	-40(%rbp), %rax
	leaq	-32(%rbp), %rcx
	movq	%rcx, -8(%rbp)
	movq	%rax, -16(%rbp)
	movq	-8(%rbp), %rax
	movq	%rax, -184(%rbp)                # 8-byte Spill
	movq	-16(%rbp), %rdi
.Ltmp6:
	callq	_ZNSt8__format10_Arg_storeISt20basic_format_contextINS_10_Sink_iterIcEEcEJiEE11_S_make_eltIiEENS_10_Arg_valueIS4_EERT_
.Ltmp7:
	movq	%rdx, -176(%rbp)                # 8-byte Spill
	movq	%rax, -168(%rbp)                # 8-byte Spill
	jmp	.LBB6_2
.LBB6_1:
.Ltmp8:
	movq	%rax, %rdi
                                        # kill: def $eax killed $edx killed $rdx
	callq	__clang_call_terminate
.LBB6_2:
	movq	-184(%rbp), %rax                # 8-byte Reload
	movq	-176(%rbp), %rcx                # 8-byte Reload
	movq	-168(%rbp), %rdx                # 8-byte Reload
	movq	%rdx, (%rax)
	movq	%rcx, 8(%rax)
	movq	-32(%rbp), %rcx
	movq	-24(%rbp), %rax
	movq	%rcx, -160(%rbp)
	movq	%rax, -152(%rbp)
	leaq	-136(%rbp), %rdi
	leaq	-160(%rbp), %rsi
	callq	_ZNSt17basic_format_argsISt20basic_format_contextINSt8__format10_Sink_iterIcEEcEEC2IJiEEERKNS1_10_Arg_storeIS4_JDpT_EEE
	movq	-200(%rbp), %rdi                # 8-byte Reload
	movq	-120(%rbp), %rsi
	movq	-112(%rbp), %rdx
	movq	-136(%rbp), %rcx
	movq	-128(%rbp), %r8
	callq	_ZSt7vformatB5cxx11St17basic_string_viewIcSt11char_traitsIcEESt17basic_format_argsISt20basic_format_contextINSt8__format10_Sink_iterIcEEcEE
	movq	-192(%rbp), %rax                # 8-byte Reload
	addq	$208, %rsp
	popq	%rbp
	.cfi_def_cfa %rsp, 8
	retq
.Lfunc_end6:
	.size	_ZSt6formatIJiEENSt7__cxx1112basic_stringIcSt11char_traitsIcESaIcEEESt19basic_format_stringIcJDpNSt13type_identityIT_E4typeEEEDpOS8_, .Lfunc_end6-_ZSt6formatIJiEENSt7__cxx1112basic_stringIcSt11char_traitsIcESaIcEEESt19basic_format_stringIcJDpNSt13type_identityIT_E4typeEEEDpOS8_
	.cfi_endproc
	.section	.gcc_except_table._ZSt6formatIJiEENSt7__cxx1112basic_stringIcSt11char_traitsIcESaIcEEESt19basic_format_stringIcJDpNSt13type_identityIT_E4typeEEEDpOS8_,"aG",@progbits,_ZSt6formatIJiEENSt7__cxx1112basic_stringIcSt11char_traitsIcESaIcEEESt19basic_format_stringIcJDpNSt13type_identityIT_E4typeEEEDpOS8_,comdat
	.p2align	2, 0x0
GCC_except_table6:
.Lexception2:
	.byte	255                             # @LPStart Encoding = omit
	.byte	155                             # @TType Encoding = indirect pcrel sdata4
	.uleb128 .Lttbase1-.Lttbaseref1
.Lttbaseref1:
	.byte	1                               # Call site Encoding = uleb128
	.uleb128 .Lcst_end2-.Lcst_begin2
.Lcst_begin2:
	.uleb128 .Ltmp6-.Lfunc_begin2           # >> Call Site 1 <<
	.uleb128 .Ltmp7-.Ltmp6                  #   Call between .Ltmp6 and .Ltmp7
	.uleb128 .Ltmp8-.Lfunc_begin2           #     jumps to .Ltmp8
	.byte	1                               #   On action: 1
	.uleb128 .Ltmp7-.Lfunc_begin2           # >> Call Site 2 <<
	.uleb128 .Lfunc_end6-.Ltmp7             #   Call between .Ltmp7 and .Lfunc_end6
	.byte	0                               #     has no landing pad
	.byte	0                               #   On action: cleanup
.Lcst_end2:
	.byte	1                               # >> Action Record 1 <<
                                        #   Catch TypeInfo 1
	.byte	0                               #   No further actions
	.p2align	2, 0x0
                                        # >> Catch TypeInfos <<
	.long	0                               # TypeInfo 1
.Lttbase1:
	.p2align	2, 0x0
                                        # -- End function
	.section	.text._ZNSt7__cxx1112basic_stringIcSt11char_traitsIcESaIcEED2Ev,"axG",@progbits,_ZNSt7__cxx1112basic_stringIcSt11char_traitsIcESaIcEED2Ev,comdat
	.weak	_ZNSt7__cxx1112basic_stringIcSt11char_traitsIcESaIcEED2Ev # -- Begin function _ZNSt7__cxx1112basic_stringIcSt11char_traitsIcESaIcEED2Ev
	.p2align	4, 0x90
	.type	_ZNSt7__cxx1112basic_stringIcSt11char_traitsIcESaIcEED2Ev,@function
_ZNSt7__cxx1112basic_stringIcSt11char_traitsIcESaIcEED2Ev: # @_ZNSt7__cxx1112basic_stringIcSt11char_traitsIcESaIcEED2Ev
.Lfunc_begin3:
	.cfi_startproc
	.cfi_personality 155, DW.ref.__gxx_personality_v0
	.cfi_lsda 27, .Lexception3
# %bb.0:
	pushq	%rbp
	.cfi_def_cfa_offset 16
	.cfi_offset %rbp, -16
	movq	%rsp, %rbp
	.cfi_def_cfa_register %rbp
	subq	$16, %rsp
	movq	%rdi, -8(%rbp)
	movq	-8(%rbp), %rdi
	movq	%rdi, -16(%rbp)                 # 8-byte Spill
.Ltmp9:
	callq	_ZNSt7__cxx1112basic_stringIcSt11char_traitsIcESaIcEE10_M_disposeEv
.Ltmp10:
	jmp	.LBB7_1
.LBB7_1:
	movq	-16(%rbp), %rdi                 # 8-byte Reload
	callq	_ZNSt7__cxx1112basic_stringIcSt11char_traitsIcESaIcEE12_Alloc_hiderD2Ev
	addq	$16, %rsp
	popq	%rbp
	.cfi_def_cfa %rsp, 8
	retq
.LBB7_2:
	.cfi_def_cfa %rbp, 16
.Ltmp11:
	movq	%rax, %rdi
                                        # kill: def $eax killed $edx killed $rdx
	callq	__clang_call_terminate
.Lfunc_end7:
	.size	_ZNSt7__cxx1112basic_stringIcSt11char_traitsIcESaIcEED2Ev, .Lfunc_end7-_ZNSt7__cxx1112basic_stringIcSt11char_traitsIcESaIcEED2Ev
	.cfi_endproc
	.section	.gcc_except_table._ZNSt7__cxx1112basic_stringIcSt11char_traitsIcESaIcEED2Ev,"aG",@progbits,_ZNSt7__cxx1112basic_stringIcSt11char_traitsIcESaIcEED2Ev,comdat
	.p2align	2, 0x0
GCC_except_table7:
.Lexception3:
	.byte	255                             # @LPStart Encoding = omit
	.byte	155                             # @TType Encoding = indirect pcrel sdata4
	.uleb128 .Lttbase2-.Lttbaseref2
.Lttbaseref2:
	.byte	1                               # Call site Encoding = uleb128
	.uleb128 .Lcst_end3-.Lcst_begin3
.Lcst_begin3:
	.uleb128 .Ltmp9-.Lfunc_begin3           # >> Call Site 1 <<
	.uleb128 .Ltmp10-.Ltmp9                 #   Call between .Ltmp9 and .Ltmp10
	.uleb128 .Ltmp11-.Lfunc_begin3          #     jumps to .Ltmp11
	.byte	1                               #   On action: 1
.Lcst_end3:
	.byte	1                               # >> Action Record 1 <<
                                        #   Catch TypeInfo 1
	.byte	0                               #   No further actions
	.p2align	2, 0x0
                                        # >> Catch TypeInfos <<
	.long	0                               # TypeInfo 1
.Lttbase2:
	.p2align	2, 0x0
                                        # -- End function
	.section	.text._ZSt14vprint_unicodeP8_IO_FILESt17basic_string_viewIcSt11char_traitsIcEESt17basic_format_argsISt20basic_format_contextINSt8__format10_Sink_iterIcEEcEE,"axG",@progbits,_ZSt14vprint_unicodeP8_IO_FILESt17basic_string_viewIcSt11char_traitsIcEESt17basic_format_argsISt20basic_format_contextINSt8__format10_Sink_iterIcEEcEE,comdat
	.weak	_ZSt14vprint_unicodeP8_IO_FILESt17basic_string_viewIcSt11char_traitsIcEESt17basic_format_argsISt20basic_format_contextINSt8__format10_Sink_iterIcEEcEE # -- Begin function _ZSt14vprint_unicodeP8_IO_FILESt17basic_string_viewIcSt11char_traitsIcEESt17basic_format_argsISt20basic_format_contextINSt8__format10_Sink_iterIcEEcEE
	.p2align	4, 0x90
	.type	_ZSt14vprint_unicodeP8_IO_FILESt17basic_string_viewIcSt11char_traitsIcEESt17basic_format_argsISt20basic_format_contextINSt8__format10_Sink_iterIcEEcEE,@function
_ZSt14vprint_unicodeP8_IO_FILESt17basic_string_viewIcSt11char_traitsIcEESt17basic_format_argsISt20basic_format_contextINSt8__format10_Sink_iterIcEEcEE: # @_ZSt14vprint_unicodeP8_IO_FILESt17basic_string_viewIcSt11char_traitsIcEESt17basic_format_argsISt20basic_format_contextINSt8__format10_Sink_iterIcEEcEE
	.cfi_startproc
# %bb.0:
	pushq	%rbp
	.cfi_def_cfa_offset 16
	.cfi_offset %rbp, -16
	movq	%rsp, %rbp
	.cfi_def_cfa_register %rbp
	subq	$80, %rsp
	movq	%rsi, -16(%rbp)
	movq	%rdx, -8(%rbp)
	movq	%rcx, -32(%rbp)
	movq	%r8, -24(%rbp)
	movq	%rdi, -40(%rbp)
	movq	-40(%rbp), %rdi
	movq	-16(%rbp), %rax
	movq	%rax, -56(%rbp)
	movq	-8(%rbp), %rax
	movq	%rax, -48(%rbp)
	movq	-32(%rbp), %rax
	movq	%rax, -72(%rbp)
	movq	-24(%rbp), %rax
	movq	%rax, -64(%rbp)
	movq	-56(%rbp), %rsi
	movq	-48(%rbp), %rdx
	movq	-72(%rbp), %rcx
	movq	-64(%rbp), %r8
	callq	_ZSt17vprint_nonunicodeP8_IO_FILESt17basic_string_viewIcSt11char_traitsIcEESt17basic_format_argsISt20basic_format_contextINSt8__format10_Sink_iterIcEEcEE
	addq	$80, %rsp
	popq	%rbp
	.cfi_def_cfa %rsp, 8
	retq
.Lfunc_end8:
	.size	_ZSt14vprint_unicodeP8_IO_FILESt17basic_string_viewIcSt11char_traitsIcEESt17basic_format_argsISt20basic_format_contextINSt8__format10_Sink_iterIcEEcEE, .Lfunc_end8-_ZSt14vprint_unicodeP8_IO_FILESt17basic_string_viewIcSt11char_traitsIcEESt17basic_format_argsISt20basic_format_contextINSt8__format10_Sink_iterIcEEcEE
	.cfi_endproc
                                        # -- End function
	.section	.text._ZNSt17basic_format_argsISt20basic_format_contextINSt8__format10_Sink_iterIcEEcEEC2IJSt17basic_string_viewIcSt11char_traitsIcEEEEERKNS1_10_Arg_storeIS4_JDpT_EEE,"axG",@progbits,_ZNSt17basic_format_argsISt20basic_format_contextINSt8__format10_Sink_iterIcEEcEEC2IJSt17basic_string_viewIcSt11char_traitsIcEEEEERKNS1_10_Arg_storeIS4_JDpT_EEE,comdat
	.weak	_ZNSt17basic_format_argsISt20basic_format_contextINSt8__format10_Sink_iterIcEEcEEC2IJSt17basic_string_viewIcSt11char_traitsIcEEEEERKNS1_10_Arg_storeIS4_JDpT_EEE # -- Begin function _ZNSt17basic_format_argsISt20basic_format_contextINSt8__format10_Sink_iterIcEEcEEC2IJSt17basic_string_viewIcSt11char_traitsIcEEEEERKNS1_10_Arg_storeIS4_JDpT_EEE
	.p2align	4, 0x90
	.type	_ZNSt17basic_format_argsISt20basic_format_contextINSt8__format10_Sink_iterIcEEcEEC2IJSt17basic_string_viewIcSt11char_traitsIcEEEEERKNS1_10_Arg_storeIS4_JDpT_EEE,@function
_ZNSt17basic_format_argsISt20basic_format_contextINSt8__format10_Sink_iterIcEEcEEC2IJSt17basic_string_viewIcSt11char_traitsIcEEEEERKNS1_10_Arg_storeIS4_JDpT_EEE: # @_ZNSt17basic_format_argsISt20basic_format_contextINSt8__format10_Sink_iterIcEEcEEC2IJSt17basic_string_viewIcSt11char_traitsIcEEEEERKNS1_10_Arg_storeIS4_JDpT_EEE
.Lfunc_begin4:
	.cfi_startproc
	.cfi_personality 155, DW.ref.__gxx_personality_v0
	.cfi_lsda 27, .Lexception4
# %bb.0:
	pushq	%rbp
	.cfi_def_cfa_offset 16
	.cfi_offset %rbp, -16
	movq	%rsp, %rbp
	.cfi_def_cfa_register %rbp
	subq	$48, %rsp
	movq	%rdi, -8(%rbp)
	movq	%rsi, -16(%rbp)
	movq	-8(%rbp), %rax
	movq	%rax, -40(%rbp)                 # 8-byte Spill
	movq	(%rax), %rcx
	andq	$-16, %rcx
	orq	$1, %rcx
	movq	%rcx, (%rax)
	movb	$11, -17(%rbp)
.Ltmp12:
	leaq	-17(%rbp), %rdi
	callq	_ZNSt8__format16__pack_arg_typesILi5ELm1EEEDaRKSt5arrayINS_6_Arg_tEXT0_EE
.Ltmp13:
	movq	%rax, -32(%rbp)                 # 8-byte Spill
	jmp	.LBB9_1
.LBB9_1:
	movq	-40(%rbp), %rax                 # 8-byte Reload
	movq	-32(%rbp), %rdx                 # 8-byte Reload
	movq	(%rax), %rcx
	movabsq	$1152921504606846975, %rsi      # imm = 0xFFFFFFFFFFFFFFF
	andq	%rsi, %rdx
	shlq	$4, %rdx
	andq	$15, %rcx
	orq	%rdx, %rcx
	movq	%rcx, (%rax)
	movq	-16(%rbp), %rcx
	movq	%rcx, 8(%rax)
	addq	$48, %rsp
	popq	%rbp
	.cfi_def_cfa %rsp, 8
	retq
.LBB9_2:
	.cfi_def_cfa %rbp, 16
.Ltmp14:
	movq	%rax, %rdi
                                        # kill: def $eax killed $edx killed $rdx
	callq	__clang_call_terminate
.Lfunc_end9:
	.size	_ZNSt17basic_format_argsISt20basic_format_contextINSt8__format10_Sink_iterIcEEcEEC2IJSt17basic_string_viewIcSt11char_traitsIcEEEEERKNS1_10_Arg_storeIS4_JDpT_EEE, .Lfunc_end9-_ZNSt17basic_format_argsISt20basic_format_contextINSt8__format10_Sink_iterIcEEcEEC2IJSt17basic_string_viewIcSt11char_traitsIcEEEEERKNS1_10_Arg_storeIS4_JDpT_EEE
	.cfi_endproc
	.section	.gcc_except_table._ZNSt17basic_format_argsISt20basic_format_contextINSt8__format10_Sink_iterIcEEcEEC2IJSt17basic_string_viewIcSt11char_traitsIcEEEEERKNS1_10_Arg_storeIS4_JDpT_EEE,"aG",@progbits,_ZNSt17basic_format_argsISt20basic_format_contextINSt8__format10_Sink_iterIcEEcEEC2IJSt17basic_string_viewIcSt11char_traitsIcEEEEERKNS1_10_Arg_storeIS4_JDpT_EEE,comdat
	.p2align	2, 0x0
GCC_except_table9:
.Lexception4:
	.byte	255                             # @LPStart Encoding = omit
	.byte	155                             # @TType Encoding = indirect pcrel sdata4
	.uleb128 .Lttbase3-.Lttbaseref3
.Lttbaseref3:
	.byte	1                               # Call site Encoding = uleb128
	.uleb128 .Lcst_end4-.Lcst_begin4
.Lcst_begin4:
	.uleb128 .Ltmp12-.Lfunc_begin4          # >> Call Site 1 <<
	.uleb128 .Ltmp13-.Ltmp12                #   Call between .Ltmp12 and .Ltmp13
	.uleb128 .Ltmp14-.Lfunc_begin4          #     jumps to .Ltmp14
	.byte	1                               #   On action: 1
.Lcst_end4:
	.byte	1                               # >> Action Record 1 <<
                                        #   Catch TypeInfo 1
	.byte	0                               #   No further actions
	.p2align	2, 0x0
                                        # >> Catch TypeInfos <<
	.long	0                               # TypeInfo 1
.Lttbase3:
	.p2align	2, 0x0
                                        # -- End function
	.section	.text._ZNSt8__format10_Arg_storeISt20basic_format_contextINS_10_Sink_iterIcEEcEJSt17basic_string_viewIcSt11char_traitsIcEEEE11_S_make_eltINSt7__cxx1112basic_stringIcS7_SaIcEEEEENS_10_Arg_valueIS4_EERT_,"axG",@progbits,_ZNSt8__format10_Arg_storeISt20basic_format_contextINS_10_Sink_iterIcEEcEJSt17basic_string_viewIcSt11char_traitsIcEEEE11_S_make_eltINSt7__cxx1112basic_stringIcS7_SaIcEEEEENS_10_Arg_valueIS4_EERT_,comdat
	.weak	_ZNSt8__format10_Arg_storeISt20basic_format_contextINS_10_Sink_iterIcEEcEJSt17basic_string_viewIcSt11char_traitsIcEEEE11_S_make_eltINSt7__cxx1112basic_stringIcS7_SaIcEEEEENS_10_Arg_valueIS4_EERT_ # -- Begin function _ZNSt8__format10_Arg_storeISt20basic_format_contextINS_10_Sink_iterIcEEcEJSt17basic_string_viewIcSt11char_traitsIcEEEE11_S_make_eltINSt7__cxx1112basic_stringIcS7_SaIcEEEEENS_10_Arg_valueIS4_EERT_
	.p2align	4, 0x90
	.type	_ZNSt8__format10_Arg_storeISt20basic_format_contextINS_10_Sink_iterIcEEcEJSt17basic_string_viewIcSt11char_traitsIcEEEE11_S_make_eltINSt7__cxx1112basic_stringIcS7_SaIcEEEEENS_10_Arg_valueIS4_EERT_,@function
_ZNSt8__format10_Arg_storeISt20basic_format_contextINS_10_Sink_iterIcEEcEJSt17basic_string_viewIcSt11char_traitsIcEEEE11_S_make_eltINSt7__cxx1112basic_stringIcS7_SaIcEEEEENS_10_Arg_valueIS4_EERT_: # @_ZNSt8__format10_Arg_storeISt20basic_format_contextINS_10_Sink_iterIcEEcEJSt17basic_string_viewIcSt11char_traitsIcEEEE11_S_make_eltINSt7__cxx1112basic_stringIcS7_SaIcEEEEENS_10_Arg_valueIS4_EERT_
	.cfi_startproc
# %bb.0:
	pushq	%rbp
	.cfi_def_cfa_offset 16
	.cfi_offset %rbp, -16
	movq	%rsp, %rbp
	.cfi_def_cfa_register %rbp
	subq	$64, %rsp
	movq	%rdi, -24(%rbp)
	movq	-24(%rbp), %rsi
	leaq	-64(%rbp), %rdi
	callq	_ZNSt16basic_format_argISt20basic_format_contextINSt8__format10_Sink_iterIcEEcEEC2INSt7__cxx1112basic_stringIcSt11char_traitsIcESaIcEEEQsr8__formatE18__formattable_withITL0__T_EEERSE_
	movaps	-64(%rbp), %xmm0
	movaps	%xmm0, -16(%rbp)
	movq	-16(%rbp), %rax
	movq	-8(%rbp), %rdx
	addq	$64, %rsp
	popq	%rbp
	.cfi_def_cfa %rsp, 8
	retq
.Lfunc_end10:
	.size	_ZNSt8__format10_Arg_storeISt20basic_format_contextINS_10_Sink_iterIcEEcEJSt17basic_string_viewIcSt11char_traitsIcEEEE11_S_make_eltINSt7__cxx1112basic_stringIcS7_SaIcEEEEENS_10_Arg_valueIS4_EERT_, .Lfunc_end10-_ZNSt8__format10_Arg_storeISt20basic_format_contextINS_10_Sink_iterIcEEcEJSt17basic_string_viewIcSt11char_traitsIcEEEE11_S_make_eltINSt7__cxx1112basic_stringIcS7_SaIcEEEEENS_10_Arg_valueIS4_EERT_
	.cfi_endproc
                                        # -- End function
	.section	.text.__clang_call_terminate,"axG",@progbits,__clang_call_terminate,comdat
	.hidden	__clang_call_terminate          # -- Begin function __clang_call_terminate
	.weak	__clang_call_terminate
	.p2align	4, 0x90
	.type	__clang_call_terminate,@function
__clang_call_terminate:                 # @__clang_call_terminate
	.cfi_startproc
# %bb.0:
	pushq	%rbp
	.cfi_def_cfa_offset 16
	.cfi_offset %rbp, -16
	movq	%rsp, %rbp
	.cfi_def_cfa_register %rbp
	callq	__cxa_begin_catch@PLT
	callq	_ZSt9terminatev@PLT
.Lfunc_end11:
	.size	__clang_call_terminate, .Lfunc_end11-__clang_call_terminate
	.cfi_endproc
                                        # -- End function
	.section	.text._ZNSt16basic_format_argISt20basic_format_contextINSt8__format10_Sink_iterIcEEcEEC2INSt7__cxx1112basic_stringIcSt11char_traitsIcESaIcEEEQsr8__formatE18__formattable_withITL0__T_EEERSE_,"axG",@progbits,_ZNSt16basic_format_argISt20basic_format_contextINSt8__format10_Sink_iterIcEEcEEC2INSt7__cxx1112basic_stringIcSt11char_traitsIcESaIcEEEQsr8__formatE18__formattable_withITL0__T_EEERSE_,comdat
	.weak	_ZNSt16basic_format_argISt20basic_format_contextINSt8__format10_Sink_iterIcEEcEEC2INSt7__cxx1112basic_stringIcSt11char_traitsIcESaIcEEEQsr8__formatE18__formattable_withITL0__T_EEERSE_ # -- Begin function _ZNSt16basic_format_argISt20basic_format_contextINSt8__format10_Sink_iterIcEEcEEC2INSt7__cxx1112basic_stringIcSt11char_traitsIcESaIcEEEQsr8__formatE18__formattable_withITL0__T_EEERSE_
	.p2align	4, 0x90
	.type	_ZNSt16basic_format_argISt20basic_format_contextINSt8__format10_Sink_iterIcEEcEEC2INSt7__cxx1112basic_stringIcSt11char_traitsIcESaIcEEEQsr8__formatE18__formattable_withITL0__T_EEERSE_,@function
_ZNSt16basic_format_argISt20basic_format_contextINSt8__format10_Sink_iterIcEEcEEC2INSt7__cxx1112basic_stringIcSt11char_traitsIcESaIcEEEQsr8__formatE18__formattable_withITL0__T_EEERSE_: # @_ZNSt16basic_format_argISt20basic_format_contextINSt8__format10_Sink_iterIcEEcEEC2INSt7__cxx1112basic_stringIcSt11char_traitsIcESaIcEEEQsr8__formatE18__formattable_withITL0__T_EEERSE_
	.cfi_startproc
# %bb.0:
	pushq	%rbp
	.cfi_def_cfa_offset 16
	.cfi_offset %rbp, -16
	movq	%rsp, %rbp
	.cfi_def_cfa_register %rbp
	subq	$64, %rsp
	movq	%rdi, -16(%rbp)
	movq	%rsi, -24(%rbp)
	movq	-16(%rbp), %rax
	movq	%rax, -48(%rbp)                 # 8-byte Spill
	movq	%rax, -8(%rbp)
# %bb.1:
	movq	-24(%rbp), %rdi
	callq	_ZNSt7__cxx1112basic_stringIcSt11char_traitsIcESaIcEE4dataEv
	movq	%rax, -56(%rbp)                 # 8-byte Spill
	movq	-24(%rbp), %rdi
	callq	_ZNKSt7__cxx1112basic_stringIcSt11char_traitsIcESaIcEE4sizeEv
	movq	-56(%rbp), %rsi                 # 8-byte Reload
	movq	%rax, %rdx
	leaq	-40(%rbp), %rdi
	callq	_ZNSt17basic_string_viewIcSt11char_traitsIcEEC2EPKcm
	movq	-48(%rbp), %rdi                 # 8-byte Reload
	movq	-40(%rbp), %rsi
	movq	-32(%rbp), %rdx
	callq	_ZNSt16basic_format_argISt20basic_format_contextINSt8__format10_Sink_iterIcEEcEE6_M_setISt17basic_string_viewIcSt11char_traitsIcEEEEvT_
	addq	$64, %rsp
	popq	%rbp
	.cfi_def_cfa %rsp, 8
	retq
.Lfunc_end12:
	.size	_ZNSt16basic_format_argISt20basic_format_contextINSt8__format10_Sink_iterIcEEcEEC2INSt7__cxx1112basic_stringIcSt11char_traitsIcESaIcEEEQsr8__formatE18__formattable_withITL0__T_EEERSE_, .Lfunc_end12-_ZNSt16basic_format_argISt20basic_format_contextINSt8__format10_Sink_iterIcEEcEEC2INSt7__cxx1112basic_stringIcSt11char_traitsIcESaIcEEEQsr8__formatE18__formattable_withITL0__T_EEERSE_
	.cfi_endproc
                                        # -- End function
	.section	.text._ZNSt16basic_format_argISt20basic_format_contextINSt8__format10_Sink_iterIcEEcEE6_M_setISt17basic_string_viewIcSt11char_traitsIcEEEEvT_,"axG",@progbits,_ZNSt16basic_format_argISt20basic_format_contextINSt8__format10_Sink_iterIcEEcEE6_M_setISt17basic_string_viewIcSt11char_traitsIcEEEEvT_,comdat
	.weak	_ZNSt16basic_format_argISt20basic_format_contextINSt8__format10_Sink_iterIcEEcEE6_M_setISt17basic_string_viewIcSt11char_traitsIcEEEEvT_ # -- Begin function _ZNSt16basic_format_argISt20basic_format_contextINSt8__format10_Sink_iterIcEEcEE6_M_setISt17basic_string_viewIcSt11char_traitsIcEEEEvT_
	.p2align	4, 0x90
	.type	_ZNSt16basic_format_argISt20basic_format_contextINSt8__format10_Sink_iterIcEEcEE6_M_setISt17basic_string_viewIcSt11char_traitsIcEEEEvT_,@function
_ZNSt16basic_format_argISt20basic_format_contextINSt8__format10_Sink_iterIcEEcEE6_M_setISt17basic_string_viewIcSt11char_traitsIcEEEEvT_: # @_ZNSt16basic_format_argISt20basic_format_contextINSt8__format10_Sink_iterIcEEcEE6_M_setISt17basic_string_viewIcSt11char_traitsIcEEEEvT_
	.cfi_startproc
# %bb.0:
	pushq	%rbp
	.cfi_def_cfa_offset 16
	.cfi_offset %rbp, -16
	movq	%rsp, %rbp
	.cfi_def_cfa_register %rbp
	movq	%rsi, -48(%rbp)
	movq	%rdx, -40(%rbp)
	movq	%rdi, -56(%rbp)
	movq	-56(%rbp), %rax
	movb	$11, 16(%rax)
	movq	-48(%rbp), %rcx
	movq	%rcx, -72(%rbp)
	movq	-40(%rbp), %rcx
	movq	%rcx, -64(%rbp)
	movq	-72(%rbp), %rdx
	movq	-64(%rbp), %rcx
	movq	%rdx, -24(%rbp)
	movq	%rcx, -16(%rbp)
	movq	%rax, -32(%rbp)
	movq	-32(%rbp), %rax
	movq	%rax, -8(%rbp)
	movq	-8(%rbp), %rax
	movq	-24(%rbp), %rcx
	movq	%rcx, (%rax)
	movq	-16(%rbp), %rcx
	movq	%rcx, 8(%rax)
	popq	%rbp
	.cfi_def_cfa %rsp, 8
	retq
.Lfunc_end13:
	.size	_ZNSt16basic_format_argISt20basic_format_contextINSt8__format10_Sink_iterIcEEcEE6_M_setISt17basic_string_viewIcSt11char_traitsIcEEEEvT_, .Lfunc_end13-_ZNSt16basic_format_argISt20basic_format_contextINSt8__format10_Sink_iterIcEEcEE6_M_setISt17basic_string_viewIcSt11char_traitsIcEEEEvT_
	.cfi_endproc
                                        # -- End function
	.section	.text._ZNSt7__cxx1112basic_stringIcSt11char_traitsIcESaIcEE4dataEv,"axG",@progbits,_ZNSt7__cxx1112basic_stringIcSt11char_traitsIcESaIcEE4dataEv,comdat
	.weak	_ZNSt7__cxx1112basic_stringIcSt11char_traitsIcESaIcEE4dataEv # -- Begin function _ZNSt7__cxx1112basic_stringIcSt11char_traitsIcESaIcEE4dataEv
	.p2align	4, 0x90
	.type	_ZNSt7__cxx1112basic_stringIcSt11char_traitsIcESaIcEE4dataEv,@function
_ZNSt7__cxx1112basic_stringIcSt11char_traitsIcESaIcEE4dataEv: # @_ZNSt7__cxx1112basic_stringIcSt11char_traitsIcESaIcEE4dataEv
.Lfunc_begin5:
	.cfi_startproc
	.cfi_personality 155, DW.ref.__gxx_personality_v0
	.cfi_lsda 27, .Lexception5
# %bb.0:
	pushq	%rbp
	.cfi_def_cfa_offset 16
	.cfi_offset %rbp, -16
	movq	%rsp, %rbp
	.cfi_def_cfa_register %rbp
	subq	$16, %rsp
	movq	%rdi, -8(%rbp)
	movq	-8(%rbp), %rdi
.Ltmp15:
	callq	_ZNKSt7__cxx1112basic_stringIcSt11char_traitsIcESaIcEE7_M_dataEv
.Ltmp16:
	movq	%rax, -16(%rbp)                 # 8-byte Spill
	jmp	.LBB14_1
.LBB14_1:
	movq	-16(%rbp), %rax                 # 8-byte Reload
	addq	$16, %rsp
	popq	%rbp
	.cfi_def_cfa %rsp, 8
	retq
.LBB14_2:
	.cfi_def_cfa %rbp, 16
.Ltmp17:
	movq	%rax, %rdi
                                        # kill: def $eax killed $edx killed $rdx
	callq	__clang_call_terminate
.Lfunc_end14:
	.size	_ZNSt7__cxx1112basic_stringIcSt11char_traitsIcESaIcEE4dataEv, .Lfunc_end14-_ZNSt7__cxx1112basic_stringIcSt11char_traitsIcESaIcEE4dataEv
	.cfi_endproc
	.section	.gcc_except_table._ZNSt7__cxx1112basic_stringIcSt11char_traitsIcESaIcEE4dataEv,"aG",@progbits,_ZNSt7__cxx1112basic_stringIcSt11char_traitsIcESaIcEE4dataEv,comdat
	.p2align	2, 0x0
GCC_except_table14:
.Lexception5:
	.byte	255                             # @LPStart Encoding = omit
	.byte	155                             # @TType Encoding = indirect pcrel sdata4
	.uleb128 .Lttbase4-.Lttbaseref4
.Lttbaseref4:
	.byte	1                               # Call site Encoding = uleb128
	.uleb128 .Lcst_end5-.Lcst_begin5
.Lcst_begin5:
	.uleb128 .Ltmp15-.Lfunc_begin5          # >> Call Site 1 <<
	.uleb128 .Ltmp16-.Ltmp15                #   Call between .Ltmp15 and .Ltmp16
	.uleb128 .Ltmp17-.Lfunc_begin5          #     jumps to .Ltmp17
	.byte	1                               #   On action: 1
.Lcst_end5:
	.byte	1                               # >> Action Record 1 <<
                                        #   Catch TypeInfo 1
	.byte	0                               #   No further actions
	.p2align	2, 0x0
                                        # >> Catch TypeInfos <<
	.long	0                               # TypeInfo 1
.Lttbase4:
	.p2align	2, 0x0
                                        # -- End function
	.section	.text._ZNKSt7__cxx1112basic_stringIcSt11char_traitsIcESaIcEE4sizeEv,"axG",@progbits,_ZNKSt7__cxx1112basic_stringIcSt11char_traitsIcESaIcEE4sizeEv,comdat
	.weak	_ZNKSt7__cxx1112basic_stringIcSt11char_traitsIcESaIcEE4sizeEv # -- Begin function _ZNKSt7__cxx1112basic_stringIcSt11char_traitsIcESaIcEE4sizeEv
	.p2align	4, 0x90
	.type	_ZNKSt7__cxx1112basic_stringIcSt11char_traitsIcESaIcEE4sizeEv,@function
_ZNKSt7__cxx1112basic_stringIcSt11char_traitsIcESaIcEE4sizeEv: # @_ZNKSt7__cxx1112basic_stringIcSt11char_traitsIcESaIcEE4sizeEv
	.cfi_startproc
# %bb.0:
	pushq	%rbp
	.cfi_def_cfa_offset 16
	.cfi_offset %rbp, -16
	movq	%rsp, %rbp
	.cfi_def_cfa_register %rbp
	movq	%rdi, -8(%rbp)
	movq	-8(%rbp), %rax
	movq	8(%rax), %rax
	popq	%rbp
	.cfi_def_cfa %rsp, 8
	retq
.Lfunc_end15:
	.size	_ZNKSt7__cxx1112basic_stringIcSt11char_traitsIcESaIcEE4sizeEv, .Lfunc_end15-_ZNKSt7__cxx1112basic_stringIcSt11char_traitsIcESaIcEE4sizeEv
	.cfi_endproc
                                        # -- End function
	.section	.text._ZNSt17basic_string_viewIcSt11char_traitsIcEEC2EPKcm,"axG",@progbits,_ZNSt17basic_string_viewIcSt11char_traitsIcEEC2EPKcm,comdat
	.weak	_ZNSt17basic_string_viewIcSt11char_traitsIcEEC2EPKcm # -- Begin function _ZNSt17basic_string_viewIcSt11char_traitsIcEEC2EPKcm
	.p2align	4, 0x90
	.type	_ZNSt17basic_string_viewIcSt11char_traitsIcEEC2EPKcm,@function
_ZNSt17basic_string_viewIcSt11char_traitsIcEEC2EPKcm: # @_ZNSt17basic_string_viewIcSt11char_traitsIcEEC2EPKcm
	.cfi_startproc
# %bb.0:
	pushq	%rbp
	.cfi_def_cfa_offset 16
	.cfi_offset %rbp, -16
	movq	%rsp, %rbp
	.cfi_def_cfa_register %rbp
	movq	%rdi, -8(%rbp)
	movq	%rsi, -16(%rbp)
	movq	%rdx, -24(%rbp)
	movq	-8(%rbp), %rax
	movq	-24(%rbp), %rcx
	movq	%rcx, (%rax)
	movq	-16(%rbp), %rcx
	movq	%rcx, 8(%rax)
	popq	%rbp
	.cfi_def_cfa %rsp, 8
	retq
.Lfunc_end16:
	.size	_ZNSt17basic_string_viewIcSt11char_traitsIcEEC2EPKcm, .Lfunc_end16-_ZNSt17basic_string_viewIcSt11char_traitsIcEEC2EPKcm
	.cfi_endproc
                                        # -- End function
	.section	.text._ZNKSt7__cxx1112basic_stringIcSt11char_traitsIcESaIcEE7_M_dataEv,"axG",@progbits,_ZNKSt7__cxx1112basic_stringIcSt11char_traitsIcESaIcEE7_M_dataEv,comdat
	.weak	_ZNKSt7__cxx1112basic_stringIcSt11char_traitsIcESaIcEE7_M_dataEv # -- Begin function _ZNKSt7__cxx1112basic_stringIcSt11char_traitsIcESaIcEE7_M_dataEv
	.p2align	4, 0x90
	.type	_ZNKSt7__cxx1112basic_stringIcSt11char_traitsIcESaIcEE7_M_dataEv,@function
_ZNKSt7__cxx1112basic_stringIcSt11char_traitsIcESaIcEE7_M_dataEv: # @_ZNKSt7__cxx1112basic_stringIcSt11char_traitsIcESaIcEE7_M_dataEv
	.cfi_startproc
# %bb.0:
	pushq	%rbp
	.cfi_def_cfa_offset 16
	.cfi_offset %rbp, -16
	movq	%rsp, %rbp
	.cfi_def_cfa_register %rbp
	movq	%rdi, -8(%rbp)
	movq	-8(%rbp), %rax
	movq	(%rax), %rax
	popq	%rbp
	.cfi_def_cfa %rsp, 8
	retq
.Lfunc_end17:
	.size	_ZNKSt7__cxx1112basic_stringIcSt11char_traitsIcESaIcEE7_M_dataEv, .Lfunc_end17-_ZNKSt7__cxx1112basic_stringIcSt11char_traitsIcESaIcEE7_M_dataEv
	.cfi_endproc
                                        # -- End function
	.section	.text._ZSt17vprint_nonunicodeP8_IO_FILESt17basic_string_viewIcSt11char_traitsIcEESt17basic_format_argsISt20basic_format_contextINSt8__format10_Sink_iterIcEEcEE,"axG",@progbits,_ZSt17vprint_nonunicodeP8_IO_FILESt17basic_string_viewIcSt11char_traitsIcEESt17basic_format_argsISt20basic_format_contextINSt8__format10_Sink_iterIcEEcEE,comdat
	.weak	_ZSt17vprint_nonunicodeP8_IO_FILESt17basic_string_viewIcSt11char_traitsIcEESt17basic_format_argsISt20basic_format_contextINSt8__format10_Sink_iterIcEEcEE # -- Begin function _ZSt17vprint_nonunicodeP8_IO_FILESt17basic_string_viewIcSt11char_traitsIcEESt17basic_format_argsISt20basic_format_contextINSt8__format10_Sink_iterIcEEcEE
	.p2align	4, 0x90
	.type	_ZSt17vprint_nonunicodeP8_IO_FILESt17basic_string_viewIcSt11char_traitsIcEESt17basic_format_argsISt20basic_format_contextINSt8__format10_Sink_iterIcEEcEE,@function
_ZSt17vprint_nonunicodeP8_IO_FILESt17basic_string_viewIcSt11char_traitsIcEESt17basic_format_argsISt20basic_format_contextINSt8__format10_Sink_iterIcEEcEE: # @_ZSt17vprint_nonunicodeP8_IO_FILESt17basic_string_viewIcSt11char_traitsIcEESt17basic_format_argsISt20basic_format_contextINSt8__format10_Sink_iterIcEEcEE
.Lfunc_begin6:
	.cfi_startproc
	.cfi_personality 155, DW.ref.__gxx_personality_v0
	.cfi_lsda 27, .Lexception6
# %bb.0:
	pushq	%rbp
	.cfi_def_cfa_offset 16
	.cfi_offset %rbp, -16
	movq	%rsp, %rbp
	.cfi_def_cfa_register %rbp
	subq	$704, %rsp                      # imm = 0x2C0
	movq	%rsi, -184(%rbp)
	movq	%rdx, -176(%rbp)
	movq	%rcx, -200(%rbp)
	movq	%r8, -192(%rbp)
	movq	%rdi, -208(%rbp)
	leaq	-528(%rbp), %rax
	movq	%rax, -168(%rbp)
	movq	-168(%rbp), %rax
	movq	%rax, -632(%rbp)                # 8-byte Spill
	movq	%rax, -48(%rbp)
	movq	-48(%rbp), %rsi
	movq	%rsi, -624(%rbp)                # 8-byte Spill
	leaq	_ZTVNSt8__format9_Buf_sinkIcEE(%rip), %rax
	addq	$16, %rax
	movq	%rax, (%rsi)
	addq	$32, %rsi
	leaq	-64(%rbp), %rdi
	callq	_ZNSt4spanIcLm18446744073709551615EEC2ILm256EQooeqT0_L_ZSt14dynamic_extentEeqTL0__T0_EERAT__c
	movq	-624(%rbp), %rax                # 8-byte Reload
	movq	-64(%rbp), %rdx
	movq	-56(%rbp), %rcx
	movq	%rdx, -32(%rbp)
	movq	%rcx, -24(%rbp)
	movq	%rax, -40(%rbp)
	movq	-40(%rbp), %rax
	movq	%rax, -640(%rbp)                # 8-byte Spill
	leaq	_ZTVNSt8__format5_SinkIcEE(%rip), %rcx
	addq	$16, %rcx
	movq	%rcx, (%rax)
	movq	-32(%rbp), %rcx
	movq	%rcx, 8(%rax)
	movq	-24(%rbp), %rcx
	movq	%rcx, 16(%rax)
	leaq	-32(%rbp), %rdi
	callq	_ZNKSt4spanIcLm18446744073709551615EE5beginEv
	movq	-640(%rbp), %rcx                # 8-byte Reload
	movq	-632(%rbp), %rdi                # 8-byte Reload
	movq	%rax, %rdx
	movq	-624(%rbp), %rax                # 8-byte Reload
	movq	%rdx, 24(%rcx)
	leaq	_ZTVNSt8__format9_Buf_sinkIcEE(%rip), %rcx
	addq	$16, %rcx
	movq	%rcx, (%rax)
	leaq	_ZTVNSt8__format9_Seq_sinkINSt7__cxx1112basic_stringIcSt11char_traitsIcESaIcEEEEE(%rip), %rax
	addq	$16, %rax
	movq	%rax, (%rdi)
	addq	$288, %rdi                      # imm = 0x120
	callq	_ZNSt7__cxx1112basic_stringIcSt11char_traitsIcESaIcEEC2Ev
	leaq	-528(%rbp), %rax
	movq	%rax, -80(%rbp)
	movq	-80(%rbp), %rax
	leaq	-72(%rbp), %rcx
	movq	%rcx, -8(%rbp)
	movq	%rax, -16(%rbp)
	movq	-8(%rbp), %rax
	movq	-16(%rbp), %rcx
	movq	%rcx, (%rax)
# %bb.1:
	movq	-72(%rbp), %rax
	movq	%rax, -536(%rbp)
	movups	-184(%rbp), %xmm0
	movaps	%xmm0, -560(%rbp)
	movups	-200(%rbp), %xmm0
	movaps	%xmm0, -576(%rbp)
	movq	-536(%rbp), %rdi
	movq	-560(%rbp), %rsi
	movq	-552(%rbp), %rdx
	movq	-576(%rbp), %rcx
	movq	-568(%rbp), %rax
	movq	%rdi, -96(%rbp)
	movq	%rsi, -112(%rbp)
	movq	%rdx, -104(%rbp)
	movq	%rcx, -128(%rbp)
	movq	%rax, -120(%rbp)
	movq	-96(%rbp), %rax
	movq	%rax, -136(%rbp)
	movups	-112(%rbp), %xmm0
	movaps	%xmm0, -160(%rbp)
	movq	-136(%rbp), %rdi
	movq	-160(%rbp), %rsi
	movq	-152(%rbp), %rdx
.Ltmp18:
	xorl	%eax, %eax
	movl	%eax, %r8d
	leaq	-128(%rbp), %rcx
	callq	_ZNSt8__format15__do_vformat_toINS_10_Sink_iterIcEEcSt20basic_format_contextIS2_cEEET_S5_St17basic_string_viewIT0_St11char_traitsIS7_EERKSt17basic_format_argsIT1_EPKSt6locale
.Ltmp19:
	movq	%rax, -648(%rbp)                # 8-byte Spill
	jmp	.LBB18_2
.LBB18_2:
	movq	-648(%rbp), %rax                # 8-byte Reload
	movq	%rax, -88(%rbp)
	movq	-88(%rbp), %rax
	movq	%rax, -656(%rbp)                # 8-byte Spill
# %bb.3:
	movq	-656(%rbp), %rax                # 8-byte Reload
	movq	%rax, -600(%rbp)
.Ltmp20:
	leaq	-528(%rbp), %rdi
	callq	_ZNSt8__format9_Seq_sinkINSt7__cxx1112basic_stringIcSt11char_traitsIcESaIcEEEE4viewEv
.Ltmp21:
	movq	%rdx, -672(%rbp)                # 8-byte Spill
	movq	%rax, -664(%rbp)                # 8-byte Spill
	jmp	.LBB18_4
.LBB18_4:
	movq	-672(%rbp), %rax                # 8-byte Reload
	movq	-664(%rbp), %rcx                # 8-byte Reload
	movq	%rcx, -616(%rbp)
	movq	%rax, -608(%rbp)
	leaq	-616(%rbp), %rdi
	movq	%rdi, -696(%rbp)                # 8-byte Spill
	callq	_ZNKSt4spanIcLm18446744073709551615EE4dataEv
	movq	-696(%rbp), %rdi                # 8-byte Reload
	movq	%rax, -688(%rbp)                # 8-byte Spill
	callq	_ZNKSt4spanIcLm18446744073709551615EE4sizeEv
	movq	-688(%rbp), %rdi                # 8-byte Reload
	movq	%rax, %rdx
	movq	-208(%rbp), %rcx
.Ltmp22:
	movl	$1, %esi
	callq	fwrite@PLT
.Ltmp23:
	movq	%rax, -680(%rbp)                # 8-byte Spill
	jmp	.LBB18_5
.LBB18_5:
	leaq	-616(%rbp), %rdi
	callq	_ZNKSt4spanIcLm18446744073709551615EE4sizeEv
	movq	%rax, %rcx
	movq	-680(%rbp), %rax                # 8-byte Reload
	cmpq	%rcx, %rax
	je	.LBB18_9
# %bb.6:
.Ltmp24:
	movl	$5, %edi
	callq	_ZSt20__throw_system_errori@PLT
.Ltmp25:
	jmp	.LBB18_7
.LBB18_7:
.LBB18_8:
.Ltmp26:
	movq	%rax, %rcx
	movl	%edx, %eax
	movq	%rcx, -584(%rbp)
	movl	%eax, -588(%rbp)
	leaq	-528(%rbp), %rdi
	callq	_ZNSt8__format9_Seq_sinkINSt7__cxx1112basic_stringIcSt11char_traitsIcESaIcEEEED2Ev
	jmp	.LBB18_10
.LBB18_9:
	leaq	-528(%rbp), %rdi
	callq	_ZNSt8__format9_Seq_sinkINSt7__cxx1112basic_stringIcSt11char_traitsIcESaIcEEEED2Ev
	addq	$704, %rsp                      # imm = 0x2C0
	popq	%rbp
	.cfi_def_cfa %rsp, 8
	retq
.LBB18_10:
	.cfi_def_cfa %rbp, 16
	movq	-584(%rbp), %rdi
	callq	_Unwind_Resume@PLT
.Lfunc_end18:
	.size	_ZSt17vprint_nonunicodeP8_IO_FILESt17basic_string_viewIcSt11char_traitsIcEESt17basic_format_argsISt20basic_format_contextINSt8__format10_Sink_iterIcEEcEE, .Lfunc_end18-_ZSt17vprint_nonunicodeP8_IO_FILESt17basic_string_viewIcSt11char_traitsIcEESt17basic_format_argsISt20basic_format_contextINSt8__format10_Sink_iterIcEEcEE
	.cfi_endproc
	.section	.gcc_except_table._ZSt17vprint_nonunicodeP8_IO_FILESt17basic_string_viewIcSt11char_traitsIcEESt17basic_format_argsISt20basic_format_contextINSt8__format10_Sink_iterIcEEcEE,"aG",@progbits,_ZSt17vprint_nonunicodeP8_IO_FILESt17basic_string_viewIcSt11char_traitsIcEESt17basic_format_argsISt20basic_format_contextINSt8__format10_Sink_iterIcEEcEE,comdat
	.p2align	2, 0x0
GCC_except_table18:
.Lexception6:
	.byte	255                             # @LPStart Encoding = omit
	.byte	255                             # @TType Encoding = omit
	.byte	1                               # Call site Encoding = uleb128
	.uleb128 .Lcst_end6-.Lcst_begin6
.Lcst_begin6:
	.uleb128 .Ltmp18-.Lfunc_begin6          # >> Call Site 1 <<
	.uleb128 .Ltmp25-.Ltmp18                #   Call between .Ltmp18 and .Ltmp25
	.uleb128 .Ltmp26-.Lfunc_begin6          #     jumps to .Ltmp26
	.byte	0                               #   On action: cleanup
	.uleb128 .Ltmp25-.Lfunc_begin6          # >> Call Site 2 <<
	.uleb128 .Lfunc_end18-.Ltmp25           #   Call between .Ltmp25 and .Lfunc_end18
	.byte	0                               #     has no landing pad
	.byte	0                               #   On action: cleanup
.Lcst_end6:
	.p2align	2, 0x0
                                        # -- End function
	.section	.text._ZNSt8__format9_Seq_sinkINSt7__cxx1112basic_stringIcSt11char_traitsIcESaIcEEEE4viewEv,"axG",@progbits,_ZNSt8__format9_Seq_sinkINSt7__cxx1112basic_stringIcSt11char_traitsIcESaIcEEEE4viewEv,comdat
	.weak	_ZNSt8__format9_Seq_sinkINSt7__cxx1112basic_stringIcSt11char_traitsIcESaIcEEEE4viewEv # -- Begin function _ZNSt8__format9_Seq_sinkINSt7__cxx1112basic_stringIcSt11char_traitsIcESaIcEEEE4viewEv
	.p2align	4, 0x90
	.type	_ZNSt8__format9_Seq_sinkINSt7__cxx1112basic_stringIcSt11char_traitsIcESaIcEEEE4viewEv,@function
_ZNSt8__format9_Seq_sinkINSt7__cxx1112basic_stringIcSt11char_traitsIcESaIcEEEE4viewEv: # @_ZNSt8__format9_Seq_sinkINSt7__cxx1112basic_stringIcSt11char_traitsIcESaIcEEEE4viewEv
	.cfi_startproc
# %bb.0:
	pushq	%rbp
	.cfi_def_cfa_offset 16
	.cfi_offset %rbp, -16
	movq	%rsp, %rbp
	.cfi_def_cfa_register %rbp
	subq	$96, %rsp
	movq	%rdi, -56(%rbp)
	movq	-56(%rbp), %rax
	movq	%rax, -80(%rbp)                 # 8-byte Spill
	movq	%rax, -24(%rbp)
	movq	-24(%rbp), %rax
	movq	%rax, %rdi
	addq	$8, %rdi
	movq	%rdi, -88(%rbp)                 # 8-byte Spill
	addq	$24, %rax
	movq	%rax, -96(%rbp)                 # 8-byte Spill
	callq	_ZNKSt4spanIcLm18446744073709551615EE5beginEv
	movq	-96(%rbp), %rdi                 # 8-byte Reload
	movq	%rax, -32(%rbp)
	leaq	-32(%rbp), %rsi
	callq	_ZN9__gnu_cxxmiIPcSt4spanIcLm18446744073709551615EEEENS_17__normal_iteratorIT_T0_E15difference_typeERKS7_SA_
	movq	-88(%rbp), %rdi                 # 8-byte Reload
	movq	%rax, %rsi
	callq	_ZNKSt4spanIcLm18446744073709551615EE5firstEm
	movq	-80(%rbp), %rdi                 # 8-byte Reload
	movq	%rax, -16(%rbp)
	movq	%rdx, -8(%rbp)
	movq	-16(%rbp), %rcx
	movq	-8(%rbp), %rax
	movq	%rcx, -72(%rbp)
	movq	%rax, -64(%rbp)
	addq	$288, %rdi                      # imm = 0x120
	callq	_ZNKSt7__cxx1112basic_stringIcSt11char_traitsIcESaIcEE4sizeEv
	cmpq	$0, %rax
	je	.LBB19_4
# %bb.1:
	leaq	-72(%rbp), %rdi
	callq	_ZNKSt4spanIcLm18446744073709551615EE4sizeEv
	cmpq	$0, %rax
	je	.LBB19_3
# %bb.2:
	movq	-80(%rbp), %rdi                 # 8-byte Reload
	callq	_ZNSt8__format9_Seq_sinkINSt7__cxx1112basic_stringIcSt11char_traitsIcESaIcEEEE11_M_overflowEv
.LBB19_3:
	movq	-80(%rbp), %rsi                 # 8-byte Reload
	addq	$288, %rsi                      # imm = 0x120
	leaq	-48(%rbp), %rdi
	callq	_ZNSt4spanIcLm18446744073709551615EEC2IRNSt7__cxx1112basic_stringIcSt11char_traitsIcESaIcEEEQaaaaaaaaaaaantsr8__detailE9__is_spanINSt12remove_cvrefITL0__E4typeEEntsr8__detailE14__is_std_arrayISC_Ent10is_array_vISC_Esr6rangesE16contiguous_rangeISA_Esr6rangesE11sized_rangeISA_Eoosr6rangesE14borrowed_rangeISA_E10is_const_vIT_Esr19__is_compatible_refIDTdeclsr3stdE7declvalIRDTclsr6ranges8__accessE7__beginclsr3stdE7declvalIRSA_EEEEEEEEE5valueEEOSD_
	jmp	.LBB19_5
.LBB19_4:
	movq	-72(%rbp), %rax
	movq	%rax, -48(%rbp)
	movq	-64(%rbp), %rax
	movq	%rax, -40(%rbp)
.LBB19_5:
	movq	-48(%rbp), %rax
	movq	-40(%rbp), %rdx
	addq	$96, %rsp
	popq	%rbp
	.cfi_def_cfa %rsp, 8
	retq
.Lfunc_end19:
	.size	_ZNSt8__format9_Seq_sinkINSt7__cxx1112basic_stringIcSt11char_traitsIcESaIcEEEE4viewEv, .Lfunc_end19-_ZNSt8__format9_Seq_sinkINSt7__cxx1112basic_stringIcSt11char_traitsIcESaIcEEEE4viewEv
	.cfi_endproc
                                        # -- End function
	.section	.text._ZNKSt4spanIcLm18446744073709551615EE4dataEv,"axG",@progbits,_ZNKSt4spanIcLm18446744073709551615EE4dataEv,comdat
	.weak	_ZNKSt4spanIcLm18446744073709551615EE4dataEv # -- Begin function _ZNKSt4spanIcLm18446744073709551615EE4dataEv
	.p2align	4, 0x90
	.type	_ZNKSt4spanIcLm18446744073709551615EE4dataEv,@function
_ZNKSt4spanIcLm18446744073709551615EE4dataEv: # @_ZNKSt4spanIcLm18446744073709551615EE4dataEv
	.cfi_startproc
# %bb.0:
	pushq	%rbp
	.cfi_def_cfa_offset 16
	.cfi_offset %rbp, -16
	movq	%rsp, %rbp
	.cfi_def_cfa_register %rbp
	movq	%rdi, -8(%rbp)
	movq	-8(%rbp), %rax
	movq	(%rax), %rax
	popq	%rbp
	.cfi_def_cfa %rsp, 8
	retq
.Lfunc_end20:
	.size	_ZNKSt4spanIcLm18446744073709551615EE4dataEv, .Lfunc_end20-_ZNKSt4spanIcLm18446744073709551615EE4dataEv
	.cfi_endproc
                                        # -- End function
	.section	.text._ZNKSt4spanIcLm18446744073709551615EE4sizeEv,"axG",@progbits,_ZNKSt4spanIcLm18446744073709551615EE4sizeEv,comdat
	.weak	_ZNKSt4spanIcLm18446744073709551615EE4sizeEv # -- Begin function _ZNKSt4spanIcLm18446744073709551615EE4sizeEv
	.p2align	4, 0x90
	.type	_ZNKSt4spanIcLm18446744073709551615EE4sizeEv,@function
_ZNKSt4spanIcLm18446744073709551615EE4sizeEv: # @_ZNKSt4spanIcLm18446744073709551615EE4sizeEv
	.cfi_startproc
# %bb.0:
	pushq	%rbp
	.cfi_def_cfa_offset 16
	.cfi_offset %rbp, -16
	movq	%rsp, %rbp
	.cfi_def_cfa_register %rbp
	subq	$16, %rsp
	movq	%rdi, -8(%rbp)
	movq	-8(%rbp), %rdi
	addq	$8, %rdi
	callq	_ZNKSt8__detail16__extent_storageILm18446744073709551615EE9_M_extentEv
	addq	$16, %rsp
	popq	%rbp
	.cfi_def_cfa %rsp, 8
	retq
.Lfunc_end21:
	.size	_ZNKSt4spanIcLm18446744073709551615EE4sizeEv, .Lfunc_end21-_ZNKSt4spanIcLm18446744073709551615EE4sizeEv
	.cfi_endproc
                                        # -- End function
	.section	.text._ZNSt8__format9_Seq_sinkINSt7__cxx1112basic_stringIcSt11char_traitsIcESaIcEEEED2Ev,"axG",@progbits,_ZNSt8__format9_Seq_sinkINSt7__cxx1112basic_stringIcSt11char_traitsIcESaIcEEEED2Ev,comdat
	.weak	_ZNSt8__format9_Seq_sinkINSt7__cxx1112basic_stringIcSt11char_traitsIcESaIcEEEED2Ev # -- Begin function _ZNSt8__format9_Seq_sinkINSt7__cxx1112basic_stringIcSt11char_traitsIcESaIcEEEED2Ev
	.p2align	4, 0x90
	.type	_ZNSt8__format9_Seq_sinkINSt7__cxx1112basic_stringIcSt11char_traitsIcESaIcEEEED2Ev,@function
_ZNSt8__format9_Seq_sinkINSt7__cxx1112basic_stringIcSt11char_traitsIcESaIcEEEED2Ev: # @_ZNSt8__format9_Seq_sinkINSt7__cxx1112basic_stringIcSt11char_traitsIcESaIcEEEED2Ev
	.cfi_startproc
# %bb.0:
	pushq	%rbp
	.cfi_def_cfa_offset 16
	.cfi_offset %rbp, -16
	movq	%rsp, %rbp
	.cfi_def_cfa_register %rbp
	subq	$16, %rsp
	movq	%rdi, -8(%rbp)
	movq	-8(%rbp), %rdi
	addq	$288, %rdi                      # imm = 0x120
	callq	_ZNSt7__cxx1112basic_stringIcSt11char_traitsIcESaIcEED2Ev
	addq	$16, %rsp
	popq	%rbp
	.cfi_def_cfa %rsp, 8
	retq
.Lfunc_end22:
	.size	_ZNSt8__format9_Seq_sinkINSt7__cxx1112basic_stringIcSt11char_traitsIcESaIcEEEED2Ev, .Lfunc_end22-_ZNSt8__format9_Seq_sinkINSt7__cxx1112basic_stringIcSt11char_traitsIcESaIcEEEED2Ev
	.cfi_endproc
                                        # -- End function
	.section	.text._ZNSt7__cxx1112basic_stringIcSt11char_traitsIcESaIcEEC2Ev,"axG",@progbits,_ZNSt7__cxx1112basic_stringIcSt11char_traitsIcESaIcEEC2Ev,comdat
	.weak	_ZNSt7__cxx1112basic_stringIcSt11char_traitsIcESaIcEEC2Ev # -- Begin function _ZNSt7__cxx1112basic_stringIcSt11char_traitsIcESaIcEEC2Ev
	.p2align	4, 0x90
	.type	_ZNSt7__cxx1112basic_stringIcSt11char_traitsIcESaIcEEC2Ev,@function
_ZNSt7__cxx1112basic_stringIcSt11char_traitsIcESaIcEEC2Ev: # @_ZNSt7__cxx1112basic_stringIcSt11char_traitsIcESaIcEEC2Ev
.Lfunc_begin7:
	.cfi_startproc
	.cfi_personality 155, DW.ref.__gxx_personality_v0
	.cfi_lsda 27, .Lexception7
# %bb.0:
	pushq	%rbp
	.cfi_def_cfa_offset 16
	.cfi_offset %rbp, -16
	movq	%rsp, %rbp
	.cfi_def_cfa_register %rbp
	subq	$80, %rsp
	movq	%rdi, -40(%rbp)
	movq	-40(%rbp), %rdi
	movq	%rdi, -72(%rbp)                 # 8-byte Spill
	movq	%rdi, %rax
	movq	%rax, -64(%rbp)                 # 8-byte Spill
.Ltmp27:
	callq	_ZNSt7__cxx1112basic_stringIcSt11char_traitsIcESaIcEE13_M_local_dataEv
.Ltmp28:
	movq	%rax, -56(%rbp)                 # 8-byte Spill
	jmp	.LBB23_1
.LBB23_1:
	movq	-56(%rbp), %rsi                 # 8-byte Reload
	movq	-72(%rbp), %rdi                 # 8-byte Reload
	leaq	-41(%rbp), %rdx
	movq	%rdx, -32(%rbp)
	movq	-32(%rbp), %rax
	movq	%rax, -8(%rbp)
.Ltmp29:
	callq	_ZNSt7__cxx1112basic_stringIcSt11char_traitsIcESaIcEE12_Alloc_hiderC2EPcOS3_
.Ltmp30:
	jmp	.LBB23_2
.LBB23_2:
	movq	-64(%rbp), %rdi                 # 8-byte Reload
	leaq	-41(%rbp), %rax
	movq	%rax, -24(%rbp)
	movq	%rdi, -16(%rbp)
.Ltmp31:
	xorl	%eax, %eax
	movl	%eax, %esi
	callq	_ZNSt7__cxx1112basic_stringIcSt11char_traitsIcESaIcEE13_M_set_lengthEm
.Ltmp32:
	jmp	.LBB23_3
.LBB23_3:
	addq	$80, %rsp
	popq	%rbp
	.cfi_def_cfa %rsp, 8
	retq
.LBB23_4:
	.cfi_def_cfa %rbp, 16
.Ltmp33:
	movq	%rax, %rdi
                                        # kill: def $eax killed $edx killed $rdx
	callq	__clang_call_terminate
.Lfunc_end23:
	.size	_ZNSt7__cxx1112basic_stringIcSt11char_traitsIcESaIcEEC2Ev, .Lfunc_end23-_ZNSt7__cxx1112basic_stringIcSt11char_traitsIcESaIcEEC2Ev
	.cfi_endproc
	.section	.gcc_except_table._ZNSt7__cxx1112basic_stringIcSt11char_traitsIcESaIcEEC2Ev,"aG",@progbits,_ZNSt7__cxx1112basic_stringIcSt11char_traitsIcESaIcEEC2Ev,comdat
	.p2align	2, 0x0
GCC_except_table23:
.Lexception7:
	.byte	255                             # @LPStart Encoding = omit
	.byte	155                             # @TType Encoding = indirect pcrel sdata4
	.uleb128 .Lttbase5-.Lttbaseref5
.Lttbaseref5:
	.byte	1                               # Call site Encoding = uleb128
	.uleb128 .Lcst_end7-.Lcst_begin7
.Lcst_begin7:
	.uleb128 .Ltmp27-.Lfunc_begin7          # >> Call Site 1 <<
	.uleb128 .Ltmp32-.Ltmp27                #   Call between .Ltmp27 and .Ltmp32
	.uleb128 .Ltmp33-.Lfunc_begin7          #     jumps to .Ltmp33
	.byte	1                               #   On action: 1
.Lcst_end7:
	.byte	1                               # >> Action Record 1 <<
                                        #   Catch TypeInfo 1
	.byte	0                               #   No further actions
	.p2align	2, 0x0
                                        # >> Catch TypeInfos <<
	.long	0                               # TypeInfo 1
.Lttbase5:
	.p2align	2, 0x0
                                        # -- End function
	.section	.text._ZNSt8__format9_Seq_sinkINSt7__cxx1112basic_stringIcSt11char_traitsIcESaIcEEEE11_M_overflowEv,"axG",@progbits,_ZNSt8__format9_Seq_sinkINSt7__cxx1112basic_stringIcSt11char_traitsIcESaIcEEEE11_M_overflowEv,comdat
	.weak	_ZNSt8__format9_Seq_sinkINSt7__cxx1112basic_stringIcSt11char_traitsIcESaIcEEEE11_M_overflowEv # -- Begin function _ZNSt8__format9_Seq_sinkINSt7__cxx1112basic_stringIcSt11char_traitsIcESaIcEEEE11_M_overflowEv
	.p2align	4, 0x90
	.type	_ZNSt8__format9_Seq_sinkINSt7__cxx1112basic_stringIcSt11char_traitsIcESaIcEEEE11_M_overflowEv,@function
_ZNSt8__format9_Seq_sinkINSt7__cxx1112basic_stringIcSt11char_traitsIcESaIcEEEE11_M_overflowEv: # @_ZNSt8__format9_Seq_sinkINSt7__cxx1112basic_stringIcSt11char_traitsIcESaIcEEEE11_M_overflowEv
	.cfi_startproc
# %bb.0:
	pushq	%rbp
	.cfi_def_cfa_offset 16
	.cfi_offset %rbp, -16
	movq	%rsp, %rbp
	.cfi_def_cfa_register %rbp
	subq	$128, %rsp
	movq	%rdi, -56(%rbp)
	movq	-56(%rbp), %rax
	movq	%rax, -96(%rbp)                 # 8-byte Spill
	movq	%rax, -40(%rbp)
	movq	-40(%rbp), %rax
	movq	%rax, %rdi
	addq	$8, %rdi
	movq	%rdi, -80(%rbp)                 # 8-byte Spill
	addq	$24, %rax
	movq	%rax, -88(%rbp)                 # 8-byte Spill
	callq	_ZNKSt4spanIcLm18446744073709551615EE5beginEv
	movq	-88(%rbp), %rdi                 # 8-byte Reload
	movq	%rax, -48(%rbp)
	leaq	-48(%rbp), %rsi
	callq	_ZN9__gnu_cxxmiIPcSt4spanIcLm18446744073709551615EEEENS_17__normal_iteratorIT_T0_E15difference_typeERKS7_SA_
	movq	-80(%rbp), %rdi                 # 8-byte Reload
	movq	%rax, %rsi
	callq	_ZNKSt4spanIcLm18446744073709551615EE5firstEm
	movq	%rax, -32(%rbp)
	movq	%rdx, -24(%rbp)
	movq	-32(%rbp), %rcx
	movq	-24(%rbp), %rax
	movq	%rcx, -72(%rbp)
	movq	%rax, -64(%rbp)
	leaq	-72(%rbp), %rdi
	callq	_ZNKSt4spanIcLm18446744073709551615EE5emptyEv
	testb	$1, %al
	jne	.LBB24_1
	jmp	.LBB24_2
.LBB24_1:
	jmp	.LBB24_3
.LBB24_2:
	movq	-96(%rbp), %rax                 # 8-byte Reload
	addq	$288, %rax                      # imm = 0x120
	movq	%rax, -120(%rbp)                # 8-byte Spill
	leaq	-72(%rbp), %rdi
	callq	_ZNKSt4spanIcLm18446744073709551615EE4dataEv
	movq	%rax, -112(%rbp)                # 8-byte Spill
	leaq	-72(%rbp), %rdi
	callq	_ZNKSt4spanIcLm18446744073709551615EE4sizeEv
	movq	-120(%rbp), %rdi                # 8-byte Reload
	movq	-112(%rbp), %rsi                # 8-byte Reload
	movq	%rax, %rdx
	callq	_ZNSt7__cxx1112basic_stringIcSt11char_traitsIcESaIcEE6appendEPKcm
                                        # kill: def $rcx killed $rax
	movq	-96(%rbp), %rax                 # 8-byte Reload
	movq	%rax, -8(%rbp)
	movq	-8(%rbp), %rdi
	movq	%rdi, -104(%rbp)                # 8-byte Spill
	addq	$8, %rdi
	callq	_ZNKSt4spanIcLm18446744073709551615EE5beginEv
	movq	%rax, %rcx
	movq	-104(%rbp), %rax                # 8-byte Reload
	movq	%rcx, -16(%rbp)
	movq	-16(%rbp), %rcx
	movq	%rcx, 24(%rax)
.LBB24_3:
	addq	$128, %rsp
	popq	%rbp
	.cfi_def_cfa %rsp, 8
	retq
.Lfunc_end24:
	.size	_ZNSt8__format9_Seq_sinkINSt7__cxx1112basic_stringIcSt11char_traitsIcESaIcEEEE11_M_overflowEv, .Lfunc_end24-_ZNSt8__format9_Seq_sinkINSt7__cxx1112basic_stringIcSt11char_traitsIcESaIcEEEE11_M_overflowEv
	.cfi_endproc
                                        # -- End function
	.section	.text._ZNSt8__format9_Seq_sinkINSt7__cxx1112basic_stringIcSt11char_traitsIcESaIcEEEE10_M_reserveEm,"axG",@progbits,_ZNSt8__format9_Seq_sinkINSt7__cxx1112basic_stringIcSt11char_traitsIcESaIcEEEE10_M_reserveEm,comdat
	.weak	_ZNSt8__format9_Seq_sinkINSt7__cxx1112basic_stringIcSt11char_traitsIcESaIcEEEE10_M_reserveEm # -- Begin function _ZNSt8__format9_Seq_sinkINSt7__cxx1112basic_stringIcSt11char_traitsIcESaIcEEEE10_M_reserveEm
	.p2align	4, 0x90
	.type	_ZNSt8__format9_Seq_sinkINSt7__cxx1112basic_stringIcSt11char_traitsIcESaIcEEEE10_M_reserveEm,@function
_ZNSt8__format9_Seq_sinkINSt7__cxx1112basic_stringIcSt11char_traitsIcESaIcEEEE10_M_reserveEm: # @_ZNSt8__format9_Seq_sinkINSt7__cxx1112basic_stringIcSt11char_traitsIcESaIcEEEE10_M_reserveEm
	.cfi_startproc
# %bb.0:
	pushq	%rbp
	.cfi_def_cfa_offset 16
	.cfi_offset %rbp, -16
	movq	%rsp, %rbp
	.cfi_def_cfa_register %rbp
	subq	$128, %rsp
	movq	%rdi, -48(%rbp)
	movq	%rsi, -56(%rbp)
	movq	-48(%rbp), %rax
	movq	%rax, -128(%rbp)                # 8-byte Spill
	movq	%rax, -24(%rbp)
	movq	-24(%rbp), %rax
	movq	%rax, %rdi
	addq	$8, %rdi
	movq	%rdi, -112(%rbp)                # 8-byte Spill
	addq	$24, %rax
	movq	%rax, -120(%rbp)                # 8-byte Spill
	callq	_ZNKSt4spanIcLm18446744073709551615EE5beginEv
	movq	-120(%rbp), %rdi                # 8-byte Reload
	movq	%rax, -32(%rbp)
	leaq	-32(%rbp), %rsi
	callq	_ZN9__gnu_cxxmiIPcSt4spanIcLm18446744073709551615EEEENS_17__normal_iteratorIT_T0_E15difference_typeERKS7_SA_
	movq	-112(%rbp), %rdi                # 8-byte Reload
	movq	%rax, %rsi
	callq	_ZNKSt4spanIcLm18446744073709551615EE5firstEm
	movq	%rax, -16(%rbp)
	movq	%rdx, -8(%rbp)
	movq	-16(%rbp), %rcx
	movq	-8(%rbp), %rax
	movq	%rcx, -72(%rbp)
	movq	%rax, -64(%rbp)
	leaq	-72(%rbp), %rdi
	callq	_ZNKSt4spanIcLm18446744073709551615EE4sizeEv
	cmpq	$0, %rax
	je	.LBB25_2
# %bb.1:
	movq	-128(%rbp), %rdi                # 8-byte Reload
	callq	_ZNSt8__format9_Seq_sinkINSt7__cxx1112basic_stringIcSt11char_traitsIcESaIcEEEE11_M_overflowEv
.LBB25_2:
	movq	-128(%rbp), %rdi                # 8-byte Reload
	addq	$288, %rdi                      # imm = 0x120
	callq	_ZNKSt7__cxx1112basic_stringIcSt11char_traitsIcESaIcEE4sizeEv
	movq	-128(%rbp), %rdi                # 8-byte Reload
	movq	%rax, -80(%rbp)
	addq	$288, %rdi                      # imm = 0x120
	movq	-80(%rbp), %rsi
	addq	-56(%rbp), %rsi
	callq	_ZNSt7__cxx1112basic_stringIcSt11char_traitsIcESaIcEE22__resize_and_overwriteIZNSt8__format9_Seq_sinkIS4_E10_M_reserveEmEUlT_T0_E_EEvmS9_
	movq	-128(%rbp), %rsi                # 8-byte Reload
	addq	$288, %rsi                      # imm = 0x120
	leaq	-104(%rbp), %rdi
	callq	_ZNSt4spanIcLm18446744073709551615EEC2IRNSt7__cxx1112basic_stringIcSt11char_traitsIcESaIcEEEQaaaaaaaaaaaantsr8__detailE9__is_spanINSt12remove_cvrefITL0__E4typeEEntsr8__detailE14__is_std_arrayISC_Ent10is_array_vISC_Esr6rangesE16contiguous_rangeISA_Esr6rangesE11sized_rangeISA_Eoosr6rangesE14borrowed_rangeISA_E10is_const_vIT_Esr19__is_compatible_refIDTdeclsr3stdE7declvalIRDTclsr6ranges8__accessE7__beginclsr3stdE7declvalIRSA_EEEEEEEEE5valueEEOSD_
	movq	-128(%rbp), %rdi                # 8-byte Reload
	movq	-80(%rbp), %rcx
	movq	-104(%rbp), %rsi
	movq	-96(%rbp), %rdx
	callq	_ZNSt8__format5_SinkIcE8_M_resetESt4spanIcLm18446744073709551615EEm
	movq	-128(%rbp), %rax                # 8-byte Reload
	movq	%rax, -40(%rbp)
	movq	-40(%rbp), %rax
	addq	$128, %rsp
	popq	%rbp
	.cfi_def_cfa %rsp, 8
	retq
.Lfunc_end25:
	.size	_ZNSt8__format9_Seq_sinkINSt7__cxx1112basic_stringIcSt11char_traitsIcESaIcEEEE10_M_reserveEm, .Lfunc_end25-_ZNSt8__format9_Seq_sinkINSt7__cxx1112basic_stringIcSt11char_traitsIcESaIcEEEE10_M_reserveEm
	.cfi_endproc
                                        # -- End function
	.section	.text._ZNSt8__format9_Seq_sinkINSt7__cxx1112basic_stringIcSt11char_traitsIcESaIcEEEE7_M_bumpEm,"axG",@progbits,_ZNSt8__format9_Seq_sinkINSt7__cxx1112basic_stringIcSt11char_traitsIcESaIcEEEE7_M_bumpEm,comdat
	.weak	_ZNSt8__format9_Seq_sinkINSt7__cxx1112basic_stringIcSt11char_traitsIcESaIcEEEE7_M_bumpEm # -- Begin function _ZNSt8__format9_Seq_sinkINSt7__cxx1112basic_stringIcSt11char_traitsIcESaIcEEEE7_M_bumpEm
	.p2align	4, 0x90
	.type	_ZNSt8__format9_Seq_sinkINSt7__cxx1112basic_stringIcSt11char_traitsIcESaIcEEEE7_M_bumpEm,@function
_ZNSt8__format9_Seq_sinkINSt7__cxx1112basic_stringIcSt11char_traitsIcESaIcEEEE7_M_bumpEm: # @_ZNSt8__format9_Seq_sinkINSt7__cxx1112basic_stringIcSt11char_traitsIcESaIcEEEE7_M_bumpEm
	.cfi_startproc
# %bb.0:
	pushq	%rbp
	.cfi_def_cfa_offset 16
	.cfi_offset %rbp, -16
	movq	%rsp, %rbp
	.cfi_def_cfa_register %rbp
	subq	$112, %rsp
	movq	%rdi, -40(%rbp)
	movq	%rsi, -48(%rbp)
	movq	-40(%rbp), %rax
	movq	%rax, -88(%rbp)                 # 8-byte Spill
	movq	%rax, -24(%rbp)
	movq	-24(%rbp), %rax
	movq	%rax, %rdi
	addq	$8, %rdi
	movq	%rdi, -104(%rbp)                # 8-byte Spill
	addq	$24, %rax
	movq	%rax, -112(%rbp)                # 8-byte Spill
	callq	_ZNKSt4spanIcLm18446744073709551615EE5beginEv
	movq	-112(%rbp), %rdi                # 8-byte Reload
	movq	%rax, -32(%rbp)
	leaq	-32(%rbp), %rsi
	callq	_ZN9__gnu_cxxmiIPcSt4spanIcLm18446744073709551615EEEENS_17__normal_iteratorIT_T0_E15difference_typeERKS7_SA_
	movq	-104(%rbp), %rdi                # 8-byte Reload
	movq	%rax, %rsi
	callq	_ZNKSt4spanIcLm18446744073709551615EE5firstEm
	movq	%rax, %rcx
	movq	-88(%rbp), %rax                 # 8-byte Reload
	movq	%rcx, -16(%rbp)
	movq	%rdx, -8(%rbp)
	movq	-16(%rbp), %rdx
	movq	-8(%rbp), %rcx
	movq	%rdx, -64(%rbp)
	movq	%rcx, -56(%rbp)
	addq	$288, %rax                      # imm = 0x120
	movq	%rax, -96(%rbp)                 # 8-byte Spill
	leaq	-64(%rbp), %rdi
	callq	_ZNKSt4spanIcLm18446744073709551615EE4sizeEv
	movq	-96(%rbp), %rdi                 # 8-byte Reload
	movq	%rax, %rsi
	addq	-48(%rbp), %rsi
	callq	_ZNSt7__cxx1112basic_stringIcSt11char_traitsIcESaIcEE6resizeEm
	movq	-88(%rbp), %rsi                 # 8-byte Reload
	addq	$32, %rsi
	leaq	-80(%rbp), %rdi
	callq	_ZNSt4spanIcLm18446744073709551615EEC2ILm256EQooeqT0_L_ZSt14dynamic_extentEeqTL0__T0_EERAT__c
	movq	-88(%rbp), %rdi                 # 8-byte Reload
	movq	-80(%rbp), %rsi
	movq	-72(%rbp), %rdx
	xorl	%eax, %eax
	movl	%eax, %ecx
	callq	_ZNSt8__format5_SinkIcE8_M_resetESt4spanIcLm18446744073709551615EEm
	addq	$112, %rsp
	popq	%rbp
	.cfi_def_cfa %rsp, 8
	retq
.Lfunc_end26:
	.size	_ZNSt8__format9_Seq_sinkINSt7__cxx1112basic_stringIcSt11char_traitsIcESaIcEEEE7_M_bumpEm, .Lfunc_end26-_ZNSt8__format9_Seq_sinkINSt7__cxx1112basic_stringIcSt11char_traitsIcESaIcEEEE7_M_bumpEm
	.cfi_endproc
                                        # -- End function
	.section	.text._ZNSt4spanIcLm18446744073709551615EEC2ILm256EQooeqT0_L_ZSt14dynamic_extentEeqTL0__T0_EERAT__c,"axG",@progbits,_ZNSt4spanIcLm18446744073709551615EEC2ILm256EQooeqT0_L_ZSt14dynamic_extentEeqTL0__T0_EERAT__c,comdat
	.weak	_ZNSt4spanIcLm18446744073709551615EEC2ILm256EQooeqT0_L_ZSt14dynamic_extentEeqTL0__T0_EERAT__c # -- Begin function _ZNSt4spanIcLm18446744073709551615EEC2ILm256EQooeqT0_L_ZSt14dynamic_extentEeqTL0__T0_EERAT__c
	.p2align	4, 0x90
	.type	_ZNSt4spanIcLm18446744073709551615EEC2ILm256EQooeqT0_L_ZSt14dynamic_extentEeqTL0__T0_EERAT__c,@function
_ZNSt4spanIcLm18446744073709551615EEC2ILm256EQooeqT0_L_ZSt14dynamic_extentEeqTL0__T0_EERAT__c: # @_ZNSt4spanIcLm18446744073709551615EEC2ILm256EQooeqT0_L_ZSt14dynamic_extentEeqTL0__T0_EERAT__c
	.cfi_startproc
# %bb.0:
	pushq	%rbp
	.cfi_def_cfa_offset 16
	.cfi_offset %rbp, -16
	movq	%rsp, %rbp
	.cfi_def_cfa_register %rbp
	subq	$16, %rsp
	movq	%rdi, -8(%rbp)
	movq	%rsi, -16(%rbp)
	movq	-8(%rbp), %rdi
	movq	-16(%rbp), %rsi
	movl	$256, %edx                      # imm = 0x100
	callq	_ZNSt4spanIcLm18446744073709551615EEC2ITkSt19contiguous_iteratorPcQsr19__is_compatible_refIDTdeclsr3stdE7declvalIRTL0__EEEEE5valueEET_m
	addq	$16, %rsp
	popq	%rbp
	.cfi_def_cfa %rsp, 8
	retq
.Lfunc_end27:
	.size	_ZNSt4spanIcLm18446744073709551615EEC2ILm256EQooeqT0_L_ZSt14dynamic_extentEeqTL0__T0_EERAT__c, .Lfunc_end27-_ZNSt4spanIcLm18446744073709551615EEC2ILm256EQooeqT0_L_ZSt14dynamic_extentEeqTL0__T0_EERAT__c
	.cfi_endproc
                                        # -- End function
	.section	.text._ZNSt8__format5_SinkIcE10_M_reserveEm,"axG",@progbits,_ZNSt8__format5_SinkIcE10_M_reserveEm,comdat
	.weak	_ZNSt8__format5_SinkIcE10_M_reserveEm # -- Begin function _ZNSt8__format5_SinkIcE10_M_reserveEm
	.p2align	4, 0x90
	.type	_ZNSt8__format5_SinkIcE10_M_reserveEm,@function
_ZNSt8__format5_SinkIcE10_M_reserveEm:  # @_ZNSt8__format5_SinkIcE10_M_reserveEm
	.cfi_startproc
# %bb.0:
	pushq	%rbp
	.cfi_def_cfa_offset 16
	.cfi_offset %rbp, -16
	movq	%rsp, %rbp
	.cfi_def_cfa_register %rbp
	subq	$192, %rsp
	movq	%rdi, -80(%rbp)
	movq	%rsi, -88(%rbp)
	movq	-80(%rbp), %rax
	movq	%rax, -152(%rbp)                # 8-byte Spill
	movq	-88(%rbp), %rcx
	movq	%rcx, -128(%rbp)                # 8-byte Spill
	movq	%rax, -24(%rbp)
	movq	-24(%rbp), %rax
	movq	%rax, %rdi
	addq	$8, %rdi
	movq	%rdi, -136(%rbp)                # 8-byte Spill
	addq	$24, %rax
	movq	%rax, -144(%rbp)                # 8-byte Spill
	callq	_ZNKSt4spanIcLm18446744073709551615EE5beginEv
	movq	-144(%rbp), %rdi                # 8-byte Reload
	movq	%rax, -32(%rbp)
	leaq	-32(%rbp), %rsi
	callq	_ZN9__gnu_cxxmiIPcSt4spanIcLm18446744073709551615EEEENS_17__normal_iteratorIT_T0_E15difference_typeERKS7_SA_
	movq	-136(%rbp), %rdi                # 8-byte Reload
	movq	%rax, %rsi
	movq	$-1, %rdx
	callq	_ZNKSt4spanIcLm18446744073709551615EE7subspanEmm
	movq	%rax, -16(%rbp)
	movq	%rdx, -8(%rbp)
	movq	-16(%rbp), %rcx
	movq	-8(%rbp), %rax
	movq	%rcx, -104(%rbp)
	movq	%rax, -96(%rbp)
	leaq	-104(%rbp), %rdi
	callq	_ZNKSt4spanIcLm18446744073709551615EE4sizeEv
	movq	%rax, %rcx
	movq	-128(%rbp), %rax                # 8-byte Reload
	cmpq	%rcx, %rax
	ja	.LBB28_2
# %bb.1:
	movq	-152(%rbp), %rax                # 8-byte Reload
	movq	%rax, -72(%rbp)
	jmp	.LBB28_7
.LBB28_2:
	movq	-152(%rbp), %rdi                # 8-byte Reload
	movq	-88(%rbp), %rax
	movq	%rax, -160(%rbp)                # 8-byte Spill
	addq	$8, %rdi
	callq	_ZNKSt4spanIcLm18446744073709551615EE4sizeEv
	movq	%rax, %rcx
	movq	-160(%rbp), %rax                # 8-byte Reload
	cmpq	%rcx, %rax
	ja	.LBB28_6
# %bb.3:
	movq	-152(%rbp), %rdi                # 8-byte Reload
	movq	(%rdi), %rax
	movq	(%rax), %rax
	callq	*%rax
	movq	-152(%rbp), %rax                # 8-byte Reload
	movq	-88(%rbp), %rcx
	movq	%rcx, -168(%rbp)                # 8-byte Spill
	movq	%rax, -56(%rbp)
	movq	-56(%rbp), %rax
	movq	%rax, %rdi
	addq	$8, %rdi
	movq	%rdi, -176(%rbp)                # 8-byte Spill
	addq	$24, %rax
	movq	%rax, -184(%rbp)                # 8-byte Spill
	callq	_ZNKSt4spanIcLm18446744073709551615EE5beginEv
	movq	-184(%rbp), %rdi                # 8-byte Reload
	movq	%rax, -64(%rbp)
	leaq	-64(%rbp), %rsi
	callq	_ZN9__gnu_cxxmiIPcSt4spanIcLm18446744073709551615EEEENS_17__normal_iteratorIT_T0_E15difference_typeERKS7_SA_
	movq	-176(%rbp), %rdi                # 8-byte Reload
	movq	%rax, %rsi
	movq	$-1, %rdx
	callq	_ZNKSt4spanIcLm18446744073709551615EE7subspanEmm
	movq	%rax, -48(%rbp)
	movq	%rdx, -40(%rbp)
	movq	-48(%rbp), %rcx
	movq	-40(%rbp), %rax
	movq	%rcx, -120(%rbp)
	movq	%rax, -112(%rbp)
	leaq	-120(%rbp), %rdi
	callq	_ZNKSt4spanIcLm18446744073709551615EE4sizeEv
	movq	%rax, %rcx
	movq	-168(%rbp), %rax                # 8-byte Reload
	cmpq	%rcx, %rax
	ja	.LBB28_5
# %bb.4:
	movq	-152(%rbp), %rax                # 8-byte Reload
	movq	%rax, -72(%rbp)
	jmp	.LBB28_7
.LBB28_5:
	jmp	.LBB28_6
.LBB28_6:
	movq	$0, -72(%rbp)
.LBB28_7:
	movq	-72(%rbp), %rax
	addq	$192, %rsp
	popq	%rbp
	.cfi_def_cfa %rsp, 8
	retq
.Lfunc_end28:
	.size	_ZNSt8__format5_SinkIcE10_M_reserveEm, .Lfunc_end28-_ZNSt8__format5_SinkIcE10_M_reserveEm
	.cfi_endproc
                                        # -- End function
	.section	.text._ZNSt8__format5_SinkIcE7_M_bumpEm,"axG",@progbits,_ZNSt8__format5_SinkIcE7_M_bumpEm,comdat
	.weak	_ZNSt8__format5_SinkIcE7_M_bumpEm # -- Begin function _ZNSt8__format5_SinkIcE7_M_bumpEm
	.p2align	4, 0x90
	.type	_ZNSt8__format5_SinkIcE7_M_bumpEm,@function
_ZNSt8__format5_SinkIcE7_M_bumpEm:      # @_ZNSt8__format5_SinkIcE7_M_bumpEm
	.cfi_startproc
# %bb.0:
	pushq	%rbp
	.cfi_def_cfa_offset 16
	.cfi_offset %rbp, -16
	movq	%rsp, %rbp
	.cfi_def_cfa_register %rbp
	subq	$16, %rsp
	movq	%rdi, -8(%rbp)
	movq	%rsi, -16(%rbp)
	movq	-8(%rbp), %rdi
	movq	-16(%rbp), %rsi
	addq	$24, %rdi
	callq	_ZN9__gnu_cxx17__normal_iteratorIPcSt4spanIcLm18446744073709551615EEEpLEl
	addq	$16, %rsp
	popq	%rbp
	.cfi_def_cfa %rsp, 8
	retq
.Lfunc_end29:
	.size	_ZNSt8__format5_SinkIcE7_M_bumpEm, .Lfunc_end29-_ZNSt8__format5_SinkIcE7_M_bumpEm
	.cfi_endproc
                                        # -- End function
	.section	.text._ZSt10to_addressIcEPT_S1_,"axG",@progbits,_ZSt10to_addressIcEPT_S1_,comdat
	.weak	_ZSt10to_addressIcEPT_S1_       # -- Begin function _ZSt10to_addressIcEPT_S1_
	.p2align	4, 0x90
	.type	_ZSt10to_addressIcEPT_S1_,@function
_ZSt10to_addressIcEPT_S1_:              # @_ZSt10to_addressIcEPT_S1_
	.cfi_startproc
# %bb.0:
	pushq	%rbp
	.cfi_def_cfa_offset 16
	.cfi_offset %rbp, -16
	movq	%rsp, %rbp
	.cfi_def_cfa_register %rbp
	subq	$16, %rsp
	movq	%rdi, -8(%rbp)
	movq	-8(%rbp), %rdi
	callq	_ZSt12__to_addressIcEPT_S1_
	addq	$16, %rsp
	popq	%rbp
	.cfi_def_cfa %rsp, 8
	retq
.Lfunc_end30:
	.size	_ZSt10to_addressIcEPT_S1_, .Lfunc_end30-_ZSt10to_addressIcEPT_S1_
	.cfi_endproc
                                        # -- End function
	.section	.text._ZNSt8__detail16__extent_storageILm18446744073709551615EEC2Em,"axG",@progbits,_ZNSt8__detail16__extent_storageILm18446744073709551615EEC2Em,comdat
	.weak	_ZNSt8__detail16__extent_storageILm18446744073709551615EEC2Em # -- Begin function _ZNSt8__detail16__extent_storageILm18446744073709551615EEC2Em
	.p2align	4, 0x90
	.type	_ZNSt8__detail16__extent_storageILm18446744073709551615EEC2Em,@function
_ZNSt8__detail16__extent_storageILm18446744073709551615EEC2Em: # @_ZNSt8__detail16__extent_storageILm18446744073709551615EEC2Em
	.cfi_startproc
# %bb.0:
	pushq	%rbp
	.cfi_def_cfa_offset 16
	.cfi_offset %rbp, -16
	movq	%rsp, %rbp
	.cfi_def_cfa_register %rbp
	movq	%rdi, -8(%rbp)
	movq	%rsi, -16(%rbp)
	movq	-8(%rbp), %rax
	movq	-16(%rbp), %rcx
	movq	%rcx, (%rax)
	popq	%rbp
	.cfi_def_cfa %rsp, 8
	retq
.Lfunc_end31:
	.size	_ZNSt8__detail16__extent_storageILm18446744073709551615EEC2Em, .Lfunc_end31-_ZNSt8__detail16__extent_storageILm18446744073709551615EEC2Em
	.cfi_endproc
                                        # -- End function
	.section	.text._ZSt12__to_addressIcEPT_S1_,"axG",@progbits,_ZSt12__to_addressIcEPT_S1_,comdat
	.weak	_ZSt12__to_addressIcEPT_S1_     # -- Begin function _ZSt12__to_addressIcEPT_S1_
	.p2align	4, 0x90
	.type	_ZSt12__to_addressIcEPT_S1_,@function
_ZSt12__to_addressIcEPT_S1_:            # @_ZSt12__to_addressIcEPT_S1_
	.cfi_startproc
# %bb.0:
	pushq	%rbp
	.cfi_def_cfa_offset 16
	.cfi_offset %rbp, -16
	movq	%rsp, %rbp
	.cfi_def_cfa_register %rbp
	movq	%rdi, -8(%rbp)
	movq	-8(%rbp), %rax
	popq	%rbp
	.cfi_def_cfa %rsp, 8
	retq
.Lfunc_end32:
	.size	_ZSt12__to_addressIcEPT_S1_, .Lfunc_end32-_ZSt12__to_addressIcEPT_S1_
	.cfi_endproc
                                        # -- End function
	.section	.text._ZNKSt4spanIcLm18446744073709551615EE5beginEv,"axG",@progbits,_ZNKSt4spanIcLm18446744073709551615EE5beginEv,comdat
	.weak	_ZNKSt4spanIcLm18446744073709551615EE5beginEv # -- Begin function _ZNKSt4spanIcLm18446744073709551615EE5beginEv
	.p2align	4, 0x90
	.type	_ZNKSt4spanIcLm18446744073709551615EE5beginEv,@function
_ZNKSt4spanIcLm18446744073709551615EE5beginEv: # @_ZNKSt4spanIcLm18446744073709551615EE5beginEv
	.cfi_startproc
# %bb.0:
	pushq	%rbp
	.cfi_def_cfa_offset 16
	.cfi_offset %rbp, -16
	movq	%rsp, %rbp
	.cfi_def_cfa_register %rbp
	subq	$16, %rsp
	movq	%rdi, -16(%rbp)
	movq	-16(%rbp), %rsi
	leaq	-8(%rbp), %rdi
	callq	_ZN9__gnu_cxx17__normal_iteratorIPcSt4spanIcLm18446744073709551615EEEC2ERKS1_
	movq	-8(%rbp), %rax
	addq	$16, %rsp
	popq	%rbp
	.cfi_def_cfa %rsp, 8
	retq
.Lfunc_end33:
	.size	_ZNKSt4spanIcLm18446744073709551615EE5beginEv, .Lfunc_end33-_ZNKSt4spanIcLm18446744073709551615EE5beginEv
	.cfi_endproc
                                        # -- End function
	.section	.text._ZN9__gnu_cxx17__normal_iteratorIPcSt4spanIcLm18446744073709551615EEEC2ERKS1_,"axG",@progbits,_ZN9__gnu_cxx17__normal_iteratorIPcSt4spanIcLm18446744073709551615EEEC2ERKS1_,comdat
	.weak	_ZN9__gnu_cxx17__normal_iteratorIPcSt4spanIcLm18446744073709551615EEEC2ERKS1_ # -- Begin function _ZN9__gnu_cxx17__normal_iteratorIPcSt4spanIcLm18446744073709551615EEEC2ERKS1_
	.p2align	4, 0x90
	.type	_ZN9__gnu_cxx17__normal_iteratorIPcSt4spanIcLm18446744073709551615EEEC2ERKS1_,@function
_ZN9__gnu_cxx17__normal_iteratorIPcSt4spanIcLm18446744073709551615EEEC2ERKS1_: # @_ZN9__gnu_cxx17__normal_iteratorIPcSt4spanIcLm18446744073709551615EEEC2ERKS1_
	.cfi_startproc
# %bb.0:
	pushq	%rbp
	.cfi_def_cfa_offset 16
	.cfi_offset %rbp, -16
	movq	%rsp, %rbp
	.cfi_def_cfa_register %rbp
	movq	%rdi, -8(%rbp)
	movq	%rsi, -16(%rbp)
	movq	-8(%rbp), %rax
	movq	-16(%rbp), %rcx
	movq	(%rcx), %rcx
	movq	%rcx, (%rax)
	popq	%rbp
	.cfi_def_cfa %rsp, 8
	retq
.Lfunc_end34:
	.size	_ZN9__gnu_cxx17__normal_iteratorIPcSt4spanIcLm18446744073709551615EEEC2ERKS1_, .Lfunc_end34-_ZN9__gnu_cxx17__normal_iteratorIPcSt4spanIcLm18446744073709551615EEEC2ERKS1_
	.cfi_endproc
                                        # -- End function
	.section	.text._ZNKSt4spanIcLm18446744073709551615EE7subspanEmm,"axG",@progbits,_ZNKSt4spanIcLm18446744073709551615EE7subspanEmm,comdat
	.weak	_ZNKSt4spanIcLm18446744073709551615EE7subspanEmm # -- Begin function _ZNKSt4spanIcLm18446744073709551615EE7subspanEmm
	.p2align	4, 0x90
	.type	_ZNKSt4spanIcLm18446744073709551615EE7subspanEmm,@function
_ZNKSt4spanIcLm18446744073709551615EE7subspanEmm: # @_ZNKSt4spanIcLm18446744073709551615EE7subspanEmm
	.cfi_startproc
# %bb.0:
	pushq	%rbp
	.cfi_def_cfa_offset 16
	.cfi_offset %rbp, -16
	movq	%rsp, %rbp
	.cfi_def_cfa_register %rbp
	subq	$48, %rsp
	movq	%rdi, -24(%rbp)
	movq	%rsi, -32(%rbp)
	movq	%rdx, -40(%rbp)
	movq	-24(%rbp), %rax
	movq	%rax, -48(%rbp)                 # 8-byte Spill
# %bb.1:
	jmp	.LBB35_2
.LBB35_2:
	jmp	.LBB35_3
.LBB35_3:
	cmpq	$-1, -40(%rbp)
	jne	.LBB35_5
# %bb.4:
	movq	-48(%rbp), %rdi                 # 8-byte Reload
	callq	_ZNKSt4spanIcLm18446744073709551615EE4sizeEv
	subq	-32(%rbp), %rax
	movq	%rax, -40(%rbp)
	jmp	.LBB35_12
.LBB35_5:
	jmp	.LBB35_6
.LBB35_6:
	jmp	.LBB35_7
.LBB35_7:
	jmp	.LBB35_8
.LBB35_8:
	jmp	.LBB35_9
.LBB35_9:
	jmp	.LBB35_10
.LBB35_10:
	jmp	.LBB35_11
.LBB35_11:
	jmp	.LBB35_12
.LBB35_12:
	movq	-48(%rbp), %rdi                 # 8-byte Reload
	callq	_ZNKSt4spanIcLm18446744073709551615EE4dataEv
	movq	%rax, %rsi
	movq	-32(%rbp), %rax
	addq	%rax, %rsi
	movq	-40(%rbp), %rdx
	leaq	-16(%rbp), %rdi
	callq	_ZNSt4spanIcLm18446744073709551615EEC2ITkSt19contiguous_iteratorPcQsr19__is_compatible_refIDTdeclsr3stdE7declvalIRTL0__EEEEE5valueEET_m
	movq	-16(%rbp), %rax
	movq	-8(%rbp), %rdx
	addq	$48, %rsp
	popq	%rbp
	.cfi_def_cfa %rsp, 8
	retq
.Lfunc_end35:
	.size	_ZNKSt4spanIcLm18446744073709551615EE7subspanEmm, .Lfunc_end35-_ZNKSt4spanIcLm18446744073709551615EE7subspanEmm
	.cfi_endproc
                                        # -- End function
	.section	.text._ZN9__gnu_cxxmiIPcSt4spanIcLm18446744073709551615EEEENS_17__normal_iteratorIT_T0_E15difference_typeERKS7_SA_,"axG",@progbits,_ZN9__gnu_cxxmiIPcSt4spanIcLm18446744073709551615EEEENS_17__normal_iteratorIT_T0_E15difference_typeERKS7_SA_,comdat
	.weak	_ZN9__gnu_cxxmiIPcSt4spanIcLm18446744073709551615EEEENS_17__normal_iteratorIT_T0_E15difference_typeERKS7_SA_ # -- Begin function _ZN9__gnu_cxxmiIPcSt4spanIcLm18446744073709551615EEEENS_17__normal_iteratorIT_T0_E15difference_typeERKS7_SA_
	.p2align	4, 0x90
	.type	_ZN9__gnu_cxxmiIPcSt4spanIcLm18446744073709551615EEEENS_17__normal_iteratorIT_T0_E15difference_typeERKS7_SA_,@function
_ZN9__gnu_cxxmiIPcSt4spanIcLm18446744073709551615EEEENS_17__normal_iteratorIT_T0_E15difference_typeERKS7_SA_: # @_ZN9__gnu_cxxmiIPcSt4spanIcLm18446744073709551615EEEENS_17__normal_iteratorIT_T0_E15difference_typeERKS7_SA_
	.cfi_startproc
# %bb.0:
	pushq	%rbp
	.cfi_def_cfa_offset 16
	.cfi_offset %rbp, -16
	movq	%rsp, %rbp
	.cfi_def_cfa_register %rbp
	subq	$32, %rsp
	movq	%rdi, -8(%rbp)
	movq	%rsi, -16(%rbp)
	movq	-8(%rbp), %rdi
	callq	_ZNK9__gnu_cxx17__normal_iteratorIPcSt4spanIcLm18446744073709551615EEE4baseEv
	movq	(%rax), %rax
	movq	%rax, -24(%rbp)                 # 8-byte Spill
	movq	-16(%rbp), %rdi
	callq	_ZNK9__gnu_cxx17__normal_iteratorIPcSt4spanIcLm18446744073709551615EEE4baseEv
	movq	%rax, %rcx
	movq	-24(%rbp), %rax                 # 8-byte Reload
	movq	(%rcx), %rcx
	subq	%rcx, %rax
	addq	$32, %rsp
	popq	%rbp
	.cfi_def_cfa %rsp, 8
	retq
.Lfunc_end36:
	.size	_ZN9__gnu_cxxmiIPcSt4spanIcLm18446744073709551615EEEENS_17__normal_iteratorIT_T0_E15difference_typeERKS7_SA_, .Lfunc_end36-_ZN9__gnu_cxxmiIPcSt4spanIcLm18446744073709551615EEEENS_17__normal_iteratorIT_T0_E15difference_typeERKS7_SA_
	.cfi_endproc
                                        # -- End function
	.section	.text._ZNSt4spanIcLm18446744073709551615EEC2ITkSt19contiguous_iteratorPcQsr19__is_compatible_refIDTdeclsr3stdE7declvalIRTL0__EEEEE5valueEET_m,"axG",@progbits,_ZNSt4spanIcLm18446744073709551615EEC2ITkSt19contiguous_iteratorPcQsr19__is_compatible_refIDTdeclsr3stdE7declvalIRTL0__EEEEE5valueEET_m,comdat
	.weak	_ZNSt4spanIcLm18446744073709551615EEC2ITkSt19contiguous_iteratorPcQsr19__is_compatible_refIDTdeclsr3stdE7declvalIRTL0__EEEEE5valueEET_m # -- Begin function _ZNSt4spanIcLm18446744073709551615EEC2ITkSt19contiguous_iteratorPcQsr19__is_compatible_refIDTdeclsr3stdE7declvalIRTL0__EEEEE5valueEET_m
	.p2align	4, 0x90
	.type	_ZNSt4spanIcLm18446744073709551615EEC2ITkSt19contiguous_iteratorPcQsr19__is_compatible_refIDTdeclsr3stdE7declvalIRTL0__EEEEE5valueEET_m,@function
_ZNSt4spanIcLm18446744073709551615EEC2ITkSt19contiguous_iteratorPcQsr19__is_compatible_refIDTdeclsr3stdE7declvalIRTL0__EEEEE5valueEET_m: # @_ZNSt4spanIcLm18446744073709551615EEC2ITkSt19contiguous_iteratorPcQsr19__is_compatible_refIDTdeclsr3stdE7declvalIRTL0__EEEEE5valueEET_m
	.cfi_startproc
# %bb.0:
	pushq	%rbp
	.cfi_def_cfa_offset 16
	.cfi_offset %rbp, -16
	movq	%rsp, %rbp
	.cfi_def_cfa_register %rbp
	subq	$32, %rsp
	movq	%rdi, -8(%rbp)
	movq	%rsi, -16(%rbp)
	movq	%rdx, -24(%rbp)
	movq	-8(%rbp), %rax
	movq	%rax, -32(%rbp)                 # 8-byte Spill
	movq	-16(%rbp), %rdi
	callq	_ZSt10to_addressIcEPT_S1_
	movq	-32(%rbp), %rdi                 # 8-byte Reload
	movq	%rax, (%rdi)
	addq	$8, %rdi
	movq	-24(%rbp), %rsi
	callq	_ZNSt8__detail16__extent_storageILm18446744073709551615EEC2Em
	addq	$32, %rsp
	popq	%rbp
	.cfi_def_cfa %rsp, 8
	retq
.Lfunc_end37:
	.size	_ZNSt4spanIcLm18446744073709551615EEC2ITkSt19contiguous_iteratorPcQsr19__is_compatible_refIDTdeclsr3stdE7declvalIRTL0__EEEEE5valueEET_m, .Lfunc_end37-_ZNSt4spanIcLm18446744073709551615EEC2ITkSt19contiguous_iteratorPcQsr19__is_compatible_refIDTdeclsr3stdE7declvalIRTL0__EEEEE5valueEET_m
	.cfi_endproc
                                        # -- End function
	.section	.text._ZNK9__gnu_cxx17__normal_iteratorIPcSt4spanIcLm18446744073709551615EEE4baseEv,"axG",@progbits,_ZNK9__gnu_cxx17__normal_iteratorIPcSt4spanIcLm18446744073709551615EEE4baseEv,comdat
	.weak	_ZNK9__gnu_cxx17__normal_iteratorIPcSt4spanIcLm18446744073709551615EEE4baseEv # -- Begin function _ZNK9__gnu_cxx17__normal_iteratorIPcSt4spanIcLm18446744073709551615EEE4baseEv
	.p2align	4, 0x90
	.type	_ZNK9__gnu_cxx17__normal_iteratorIPcSt4spanIcLm18446744073709551615EEE4baseEv,@function
_ZNK9__gnu_cxx17__normal_iteratorIPcSt4spanIcLm18446744073709551615EEE4baseEv: # @_ZNK9__gnu_cxx17__normal_iteratorIPcSt4spanIcLm18446744073709551615EEE4baseEv
	.cfi_startproc
# %bb.0:
	pushq	%rbp
	.cfi_def_cfa_offset 16
	.cfi_offset %rbp, -16
	movq	%rsp, %rbp
	.cfi_def_cfa_register %rbp
	movq	%rdi, -8(%rbp)
	movq	-8(%rbp), %rax
	popq	%rbp
	.cfi_def_cfa %rsp, 8
	retq
.Lfunc_end38:
	.size	_ZNK9__gnu_cxx17__normal_iteratorIPcSt4spanIcLm18446744073709551615EEE4baseEv, .Lfunc_end38-_ZNK9__gnu_cxx17__normal_iteratorIPcSt4spanIcLm18446744073709551615EEE4baseEv
	.cfi_endproc
                                        # -- End function
	.section	.text._ZN9__gnu_cxx17__normal_iteratorIPcSt4spanIcLm18446744073709551615EEEpLEl,"axG",@progbits,_ZN9__gnu_cxx17__normal_iteratorIPcSt4spanIcLm18446744073709551615EEEpLEl,comdat
	.weak	_ZN9__gnu_cxx17__normal_iteratorIPcSt4spanIcLm18446744073709551615EEEpLEl # -- Begin function _ZN9__gnu_cxx17__normal_iteratorIPcSt4spanIcLm18446744073709551615EEEpLEl
	.p2align	4, 0x90
	.type	_ZN9__gnu_cxx17__normal_iteratorIPcSt4spanIcLm18446744073709551615EEEpLEl,@function
_ZN9__gnu_cxx17__normal_iteratorIPcSt4spanIcLm18446744073709551615EEEpLEl: # @_ZN9__gnu_cxx17__normal_iteratorIPcSt4spanIcLm18446744073709551615EEEpLEl
	.cfi_startproc
# %bb.0:
	pushq	%rbp
	.cfi_def_cfa_offset 16
	.cfi_offset %rbp, -16
	movq	%rsp, %rbp
	.cfi_def_cfa_register %rbp
	movq	%rdi, -8(%rbp)
	movq	%rsi, -16(%rbp)
	movq	-8(%rbp), %rax
	movq	-16(%rbp), %rcx
	addq	(%rax), %rcx
	movq	%rcx, (%rax)
	popq	%rbp
	.cfi_def_cfa %rsp, 8
	retq
.Lfunc_end39:
	.size	_ZN9__gnu_cxx17__normal_iteratorIPcSt4spanIcLm18446744073709551615EEEpLEl, .Lfunc_end39-_ZN9__gnu_cxx17__normal_iteratorIPcSt4spanIcLm18446744073709551615EEEpLEl
	.cfi_endproc
                                        # -- End function
	.section	.text._ZNSt7__cxx1112basic_stringIcSt11char_traitsIcESaIcEE13_M_local_dataEv,"axG",@progbits,_ZNSt7__cxx1112basic_stringIcSt11char_traitsIcESaIcEE13_M_local_dataEv,comdat
	.weak	_ZNSt7__cxx1112basic_stringIcSt11char_traitsIcESaIcEE13_M_local_dataEv # -- Begin function _ZNSt7__cxx1112basic_stringIcSt11char_traitsIcESaIcEE13_M_local_dataEv
	.p2align	4, 0x90
	.type	_ZNSt7__cxx1112basic_stringIcSt11char_traitsIcESaIcEE13_M_local_dataEv,@function
_ZNSt7__cxx1112basic_stringIcSt11char_traitsIcESaIcEE13_M_local_dataEv: # @_ZNSt7__cxx1112basic_stringIcSt11char_traitsIcESaIcEE13_M_local_dataEv
	.cfi_startproc
# %bb.0:
	pushq	%rbp
	.cfi_def_cfa_offset 16
	.cfi_offset %rbp, -16
	movq	%rsp, %rbp
	.cfi_def_cfa_register %rbp
	subq	$16, %rsp
	movq	%rdi, -8(%rbp)
	movq	-8(%rbp), %rdi
	addq	$16, %rdi
	callq	_ZNSt19__ptr_traits_ptr_toIPccLb0EE10pointer_toERc
	addq	$16, %rsp
	popq	%rbp
	.cfi_def_cfa %rsp, 8
	retq
.Lfunc_end40:
	.size	_ZNSt7__cxx1112basic_stringIcSt11char_traitsIcESaIcEE13_M_local_dataEv, .Lfunc_end40-_ZNSt7__cxx1112basic_stringIcSt11char_traitsIcESaIcEE13_M_local_dataEv
	.cfi_endproc
                                        # -- End function
	.section	.text._ZNSt7__cxx1112basic_stringIcSt11char_traitsIcESaIcEE12_Alloc_hiderC2EPcOS3_,"axG",@progbits,_ZNSt7__cxx1112basic_stringIcSt11char_traitsIcESaIcEE12_Alloc_hiderC2EPcOS3_,comdat
	.weak	_ZNSt7__cxx1112basic_stringIcSt11char_traitsIcESaIcEE12_Alloc_hiderC2EPcOS3_ # -- Begin function _ZNSt7__cxx1112basic_stringIcSt11char_traitsIcESaIcEE12_Alloc_hiderC2EPcOS3_
	.p2align	4, 0x90
	.type	_ZNSt7__cxx1112basic_stringIcSt11char_traitsIcESaIcEE12_Alloc_hiderC2EPcOS3_,@function
_ZNSt7__cxx1112basic_stringIcSt11char_traitsIcESaIcEE12_Alloc_hiderC2EPcOS3_: # @_ZNSt7__cxx1112basic_stringIcSt11char_traitsIcESaIcEE12_Alloc_hiderC2EPcOS3_
	.cfi_startproc
# %bb.0:
	pushq	%rbp
	.cfi_def_cfa_offset 16
	.cfi_offset %rbp, -16
	movq	%rsp, %rbp
	.cfi_def_cfa_register %rbp
	movq	%rdi, -40(%rbp)
	movq	%rsi, -48(%rbp)
	movq	%rdx, -56(%rbp)
	movq	-40(%rbp), %rax
	movq	-56(%rbp), %rcx
	movq	%rax, -24(%rbp)
	movq	%rcx, -32(%rbp)
	movq	-24(%rbp), %rdx
	movq	-32(%rbp), %rcx
	movq	%rdx, -8(%rbp)
	movq	%rcx, -16(%rbp)
	movq	-48(%rbp), %rcx
	movq	%rcx, (%rax)
	popq	%rbp
	.cfi_def_cfa %rsp, 8
	retq
.Lfunc_end41:
	.size	_ZNSt7__cxx1112basic_stringIcSt11char_traitsIcESaIcEE12_Alloc_hiderC2EPcOS3_, .Lfunc_end41-_ZNSt7__cxx1112basic_stringIcSt11char_traitsIcESaIcEE12_Alloc_hiderC2EPcOS3_
	.cfi_endproc
                                        # -- End function
	.section	.text._ZNSt7__cxx1112basic_stringIcSt11char_traitsIcESaIcEE13_M_set_lengthEm,"axG",@progbits,_ZNSt7__cxx1112basic_stringIcSt11char_traitsIcESaIcEE13_M_set_lengthEm,comdat
	.weak	_ZNSt7__cxx1112basic_stringIcSt11char_traitsIcESaIcEE13_M_set_lengthEm # -- Begin function _ZNSt7__cxx1112basic_stringIcSt11char_traitsIcESaIcEE13_M_set_lengthEm
	.p2align	4, 0x90
	.type	_ZNSt7__cxx1112basic_stringIcSt11char_traitsIcESaIcEE13_M_set_lengthEm,@function
_ZNSt7__cxx1112basic_stringIcSt11char_traitsIcESaIcEE13_M_set_lengthEm: # @_ZNSt7__cxx1112basic_stringIcSt11char_traitsIcESaIcEE13_M_set_lengthEm
	.cfi_startproc
# %bb.0:
	pushq	%rbp
	.cfi_def_cfa_offset 16
	.cfi_offset %rbp, -16
	movq	%rsp, %rbp
	.cfi_def_cfa_register %rbp
	subq	$32, %rsp
	movq	%rdi, -8(%rbp)
	movq	%rsi, -16(%rbp)
	movq	-8(%rbp), %rdi
	movq	%rdi, -32(%rbp)                 # 8-byte Spill
	movq	-16(%rbp), %rsi
	callq	_ZNSt7__cxx1112basic_stringIcSt11char_traitsIcESaIcEE9_M_lengthEm
	movq	-32(%rbp), %rdi                 # 8-byte Reload
	callq	_ZNKSt7__cxx1112basic_stringIcSt11char_traitsIcESaIcEE7_M_dataEv
	movq	%rax, %rdi
	addq	-16(%rbp), %rdi
	movb	$0, -17(%rbp)
	leaq	-17(%rbp), %rsi
	callq	_ZNSt11char_traitsIcE6assignERcRKc
	addq	$32, %rsp
	popq	%rbp
	.cfi_def_cfa %rsp, 8
	retq
.Lfunc_end42:
	.size	_ZNSt7__cxx1112basic_stringIcSt11char_traitsIcESaIcEE13_M_set_lengthEm, .Lfunc_end42-_ZNSt7__cxx1112basic_stringIcSt11char_traitsIcESaIcEE13_M_set_lengthEm
	.cfi_endproc
                                        # -- End function
	.section	.text._ZNSt19__ptr_traits_ptr_toIPccLb0EE10pointer_toERc,"axG",@progbits,_ZNSt19__ptr_traits_ptr_toIPccLb0EE10pointer_toERc,comdat
	.weak	_ZNSt19__ptr_traits_ptr_toIPccLb0EE10pointer_toERc # -- Begin function _ZNSt19__ptr_traits_ptr_toIPccLb0EE10pointer_toERc
	.p2align	4, 0x90
	.type	_ZNSt19__ptr_traits_ptr_toIPccLb0EE10pointer_toERc,@function
_ZNSt19__ptr_traits_ptr_toIPccLb0EE10pointer_toERc: # @_ZNSt19__ptr_traits_ptr_toIPccLb0EE10pointer_toERc
	.cfi_startproc
# %bb.0:
	pushq	%rbp
	.cfi_def_cfa_offset 16
	.cfi_offset %rbp, -16
	movq	%rsp, %rbp
	.cfi_def_cfa_register %rbp
	movq	%rdi, -8(%rbp)
	movq	-8(%rbp), %rax
	popq	%rbp
	.cfi_def_cfa %rsp, 8
	retq
.Lfunc_end43:
	.size	_ZNSt19__ptr_traits_ptr_toIPccLb0EE10pointer_toERc, .Lfunc_end43-_ZNSt19__ptr_traits_ptr_toIPccLb0EE10pointer_toERc
	.cfi_endproc
                                        # -- End function
	.section	.text._ZNSt7__cxx1112basic_stringIcSt11char_traitsIcESaIcEE9_M_lengthEm,"axG",@progbits,_ZNSt7__cxx1112basic_stringIcSt11char_traitsIcESaIcEE9_M_lengthEm,comdat
	.weak	_ZNSt7__cxx1112basic_stringIcSt11char_traitsIcESaIcEE9_M_lengthEm # -- Begin function _ZNSt7__cxx1112basic_stringIcSt11char_traitsIcESaIcEE9_M_lengthEm
	.p2align	4, 0x90
	.type	_ZNSt7__cxx1112basic_stringIcSt11char_traitsIcESaIcEE9_M_lengthEm,@function
_ZNSt7__cxx1112basic_stringIcSt11char_traitsIcESaIcEE9_M_lengthEm: # @_ZNSt7__cxx1112basic_stringIcSt11char_traitsIcESaIcEE9_M_lengthEm
	.cfi_startproc
# %bb.0:
	pushq	%rbp
	.cfi_def_cfa_offset 16
	.cfi_offset %rbp, -16
	movq	%rsp, %rbp
	.cfi_def_cfa_register %rbp
	movq	%rdi, -8(%rbp)
	movq	%rsi, -16(%rbp)
	movq	-8(%rbp), %rax
	movq	-16(%rbp), %rcx
	movq	%rcx, 8(%rax)
	popq	%rbp
	.cfi_def_cfa %rsp, 8
	retq
.Lfunc_end44:
	.size	_ZNSt7__cxx1112basic_stringIcSt11char_traitsIcESaIcEE9_M_lengthEm, .Lfunc_end44-_ZNSt7__cxx1112basic_stringIcSt11char_traitsIcESaIcEE9_M_lengthEm
	.cfi_endproc
                                        # -- End function
	.section	.text._ZNSt11char_traitsIcE6assignERcRKc,"axG",@progbits,_ZNSt11char_traitsIcE6assignERcRKc,comdat
	.weak	_ZNSt11char_traitsIcE6assignERcRKc # -- Begin function _ZNSt11char_traitsIcE6assignERcRKc
	.p2align	4, 0x90
	.type	_ZNSt11char_traitsIcE6assignERcRKc,@function
_ZNSt11char_traitsIcE6assignERcRKc:     # @_ZNSt11char_traitsIcE6assignERcRKc
	.cfi_startproc
# %bb.0:
	pushq	%rbp
	.cfi_def_cfa_offset 16
	.cfi_offset %rbp, -16
	movq	%rsp, %rbp
	.cfi_def_cfa_register %rbp
	movq	%rdi, -8(%rbp)
	movq	%rsi, -16(%rbp)
	movq	-16(%rbp), %rax
	movb	(%rax), %cl
	movq	-8(%rbp), %rax
	movb	%cl, (%rax)
	popq	%rbp
	.cfi_def_cfa %rsp, 8
	retq
.Lfunc_end45:
	.size	_ZNSt11char_traitsIcE6assignERcRKc, .Lfunc_end45-_ZNSt11char_traitsIcE6assignERcRKc
	.cfi_endproc
                                        # -- End function
	.section	.text._ZNKSt4spanIcLm18446744073709551615EE5emptyEv,"axG",@progbits,_ZNKSt4spanIcLm18446744073709551615EE5emptyEv,comdat
	.weak	_ZNKSt4spanIcLm18446744073709551615EE5emptyEv # -- Begin function _ZNKSt4spanIcLm18446744073709551615EE5emptyEv
	.p2align	4, 0x90
	.type	_ZNKSt4spanIcLm18446744073709551615EE5emptyEv,@function
_ZNKSt4spanIcLm18446744073709551615EE5emptyEv: # @_ZNKSt4spanIcLm18446744073709551615EE5emptyEv
	.cfi_startproc
# %bb.0:
	pushq	%rbp
	.cfi_def_cfa_offset 16
	.cfi_offset %rbp, -16
	movq	%rsp, %rbp
	.cfi_def_cfa_register %rbp
	subq	$16, %rsp
	movq	%rdi, -8(%rbp)
	movq	-8(%rbp), %rdi
	callq	_ZNKSt4spanIcLm18446744073709551615EE4sizeEv
	cmpq	$0, %rax
	sete	%al
	andb	$1, %al
	movzbl	%al, %eax
	addq	$16, %rsp
	popq	%rbp
	.cfi_def_cfa %rsp, 8
	retq
.Lfunc_end46:
	.size	_ZNKSt4spanIcLm18446744073709551615EE5emptyEv, .Lfunc_end46-_ZNKSt4spanIcLm18446744073709551615EE5emptyEv
	.cfi_endproc
                                        # -- End function
	.section	.text._ZNSt7__cxx1112basic_stringIcSt11char_traitsIcESaIcEE6appendEPKcm,"axG",@progbits,_ZNSt7__cxx1112basic_stringIcSt11char_traitsIcESaIcEE6appendEPKcm,comdat
	.weak	_ZNSt7__cxx1112basic_stringIcSt11char_traitsIcESaIcEE6appendEPKcm # -- Begin function _ZNSt7__cxx1112basic_stringIcSt11char_traitsIcESaIcEE6appendEPKcm
	.p2align	4, 0x90
	.type	_ZNSt7__cxx1112basic_stringIcSt11char_traitsIcESaIcEE6appendEPKcm,@function
_ZNSt7__cxx1112basic_stringIcSt11char_traitsIcESaIcEE6appendEPKcm: # @_ZNSt7__cxx1112basic_stringIcSt11char_traitsIcESaIcEE6appendEPKcm
	.cfi_startproc
# %bb.0:
	pushq	%rbp
	.cfi_def_cfa_offset 16
	.cfi_offset %rbp, -16
	movq	%rsp, %rbp
	.cfi_def_cfa_register %rbp
	subq	$32, %rsp
	movq	%rdi, -8(%rbp)
	movq	%rsi, -16(%rbp)
	movq	%rdx, -24(%rbp)
	movq	-8(%rbp), %rdi
	movq	%rdi, -32(%rbp)                 # 8-byte Spill
	movq	-24(%rbp), %rdx
	xorl	%eax, %eax
	movl	%eax, %esi
	leaq	.L.str.2(%rip), %rcx
	callq	_ZNKSt7__cxx1112basic_stringIcSt11char_traitsIcESaIcEE15_M_check_lengthEmmPKc
	movq	-32(%rbp), %rdi                 # 8-byte Reload
	movq	-16(%rbp), %rsi
	movq	-24(%rbp), %rdx
	callq	_ZNSt7__cxx1112basic_stringIcSt11char_traitsIcESaIcEE9_M_appendEPKcm
	addq	$32, %rsp
	popq	%rbp
	.cfi_def_cfa %rsp, 8
	retq
.Lfunc_end47:
	.size	_ZNSt7__cxx1112basic_stringIcSt11char_traitsIcESaIcEE6appendEPKcm, .Lfunc_end47-_ZNSt7__cxx1112basic_stringIcSt11char_traitsIcESaIcEE6appendEPKcm
	.cfi_endproc
                                        # -- End function
	.section	.text._ZNKSt4spanIcLm18446744073709551615EE5firstEm,"axG",@progbits,_ZNKSt4spanIcLm18446744073709551615EE5firstEm,comdat
	.weak	_ZNKSt4spanIcLm18446744073709551615EE5firstEm # -- Begin function _ZNKSt4spanIcLm18446744073709551615EE5firstEm
	.p2align	4, 0x90
	.type	_ZNKSt4spanIcLm18446744073709551615EE5firstEm,@function
_ZNKSt4spanIcLm18446744073709551615EE5firstEm: # @_ZNKSt4spanIcLm18446744073709551615EE5firstEm
	.cfi_startproc
# %bb.0:
	pushq	%rbp
	.cfi_def_cfa_offset 16
	.cfi_offset %rbp, -16
	movq	%rsp, %rbp
	.cfi_def_cfa_register %rbp
	subq	$48, %rsp
	movq	%rdi, -24(%rbp)
	movq	%rsi, -32(%rbp)
	movq	-24(%rbp), %rax
	movq	%rax, -40(%rbp)                 # 8-byte Spill
# %bb.1:
	jmp	.LBB48_2
.LBB48_2:
	jmp	.LBB48_3
.LBB48_3:
	movq	-40(%rbp), %rdi                 # 8-byte Reload
	callq	_ZNKSt4spanIcLm18446744073709551615EE4dataEv
	movq	%rax, %rsi
	movq	-32(%rbp), %rdx
	leaq	-16(%rbp), %rdi
	callq	_ZNSt4spanIcLm18446744073709551615EEC2ITkSt19contiguous_iteratorPcQsr19__is_compatible_refIDTdeclsr3stdE7declvalIRTL0__EEEEE5valueEET_m
	movq	-16(%rbp), %rax
	movq	-8(%rbp), %rdx
	addq	$48, %rsp
	popq	%rbp
	.cfi_def_cfa %rsp, 8
	retq
.Lfunc_end48:
	.size	_ZNKSt4spanIcLm18446744073709551615EE5firstEm, .Lfunc_end48-_ZNKSt4spanIcLm18446744073709551615EE5firstEm
	.cfi_endproc
                                        # -- End function
	.section	.text._ZNKSt7__cxx1112basic_stringIcSt11char_traitsIcESaIcEE15_M_check_lengthEmmPKc,"axG",@progbits,_ZNKSt7__cxx1112basic_stringIcSt11char_traitsIcESaIcEE15_M_check_lengthEmmPKc,comdat
	.weak	_ZNKSt7__cxx1112basic_stringIcSt11char_traitsIcESaIcEE15_M_check_lengthEmmPKc # -- Begin function _ZNKSt7__cxx1112basic_stringIcSt11char_traitsIcESaIcEE15_M_check_lengthEmmPKc
	.p2align	4, 0x90
	.type	_ZNKSt7__cxx1112basic_stringIcSt11char_traitsIcESaIcEE15_M_check_lengthEmmPKc,@function
_ZNKSt7__cxx1112basic_stringIcSt11char_traitsIcESaIcEE15_M_check_lengthEmmPKc: # @_ZNKSt7__cxx1112basic_stringIcSt11char_traitsIcESaIcEE15_M_check_lengthEmmPKc
	.cfi_startproc
# %bb.0:
	pushq	%rbp
	.cfi_def_cfa_offset 16
	.cfi_offset %rbp, -16
	movq	%rsp, %rbp
	.cfi_def_cfa_register %rbp
	subq	$48, %rsp
	movq	%rdi, -8(%rbp)
	movq	%rsi, -16(%rbp)
	movq	%rdx, -24(%rbp)
	movq	%rcx, -32(%rbp)
	movq	-8(%rbp), %rdi
	movq	%rdi, -48(%rbp)                 # 8-byte Spill
	callq	_ZNKSt7__cxx1112basic_stringIcSt11char_traitsIcESaIcEE8max_sizeEv
	movq	-48(%rbp), %rdi                 # 8-byte Reload
	movq	%rax, -40(%rbp)                 # 8-byte Spill
	callq	_ZNKSt7__cxx1112basic_stringIcSt11char_traitsIcESaIcEE4sizeEv
	movq	%rax, %rcx
	movq	-40(%rbp), %rax                 # 8-byte Reload
	subq	-16(%rbp), %rcx
	subq	%rcx, %rax
	cmpq	-24(%rbp), %rax
	jae	.LBB49_2
# %bb.1:
	movq	-32(%rbp), %rdi
	callq	_ZSt20__throw_length_errorPKc@PLT
.LBB49_2:
	addq	$48, %rsp
	popq	%rbp
	.cfi_def_cfa %rsp, 8
	retq
.Lfunc_end49:
	.size	_ZNKSt7__cxx1112basic_stringIcSt11char_traitsIcESaIcEE15_M_check_lengthEmmPKc, .Lfunc_end49-_ZNKSt7__cxx1112basic_stringIcSt11char_traitsIcESaIcEE15_M_check_lengthEmmPKc
	.cfi_endproc
                                        # -- End function
	.section	.text._ZNSt7__cxx1112basic_stringIcSt11char_traitsIcESaIcEE9_M_appendEPKcm,"axG",@progbits,_ZNSt7__cxx1112basic_stringIcSt11char_traitsIcESaIcEE9_M_appendEPKcm,comdat
	.weak	_ZNSt7__cxx1112basic_stringIcSt11char_traitsIcESaIcEE9_M_appendEPKcm # -- Begin function _ZNSt7__cxx1112basic_stringIcSt11char_traitsIcESaIcEE9_M_appendEPKcm
	.p2align	4, 0x90
	.type	_ZNSt7__cxx1112basic_stringIcSt11char_traitsIcESaIcEE9_M_appendEPKcm,@function
_ZNSt7__cxx1112basic_stringIcSt11char_traitsIcESaIcEE9_M_appendEPKcm: # @_ZNSt7__cxx1112basic_stringIcSt11char_traitsIcESaIcEE9_M_appendEPKcm
	.cfi_startproc
# %bb.0:
	pushq	%rbp
	.cfi_def_cfa_offset 16
	.cfi_offset %rbp, -16
	movq	%rsp, %rbp
	.cfi_def_cfa_register %rbp
	subq	$64, %rsp
	movq	%rdi, -8(%rbp)
	movq	%rsi, -16(%rbp)
	movq	%rdx, -24(%rbp)
	movq	-8(%rbp), %rdi
	movq	%rdi, -56(%rbp)                 # 8-byte Spill
	movq	-24(%rbp), %rax
	movq	%rax, -48(%rbp)                 # 8-byte Spill
	callq	_ZNKSt7__cxx1112basic_stringIcSt11char_traitsIcESaIcEE4sizeEv
	movq	-56(%rbp), %rdi                 # 8-byte Reload
	movq	%rax, %rcx
	movq	-48(%rbp), %rax                 # 8-byte Reload
	addq	%rcx, %rax
	movq	%rax, -32(%rbp)
	movq	-32(%rbp), %rax
	movq	%rax, -40(%rbp)                 # 8-byte Spill
	callq	_ZNKSt7__cxx1112basic_stringIcSt11char_traitsIcESaIcEE8capacityEv
	movq	%rax, %rcx
	movq	-40(%rbp), %rax                 # 8-byte Reload
	cmpq	%rcx, %rax
	ja	.LBB50_4
# %bb.1:
	cmpq	$0, -24(%rbp)
	je	.LBB50_3
# %bb.2:
	movq	-56(%rbp), %rdi                 # 8-byte Reload
	callq	_ZNKSt7__cxx1112basic_stringIcSt11char_traitsIcESaIcEE7_M_dataEv
	movq	-56(%rbp), %rdi                 # 8-byte Reload
	movq	%rax, -64(%rbp)                 # 8-byte Spill
	callq	_ZNKSt7__cxx1112basic_stringIcSt11char_traitsIcESaIcEE4sizeEv
	movq	-64(%rbp), %rdi                 # 8-byte Reload
	addq	%rax, %rdi
	movq	-16(%rbp), %rsi
	movq	-24(%rbp), %rdx
	callq	_ZNSt7__cxx1112basic_stringIcSt11char_traitsIcESaIcEE7_S_copyEPcPKcm
.LBB50_3:
	jmp	.LBB50_5
.LBB50_4:
	movq	-56(%rbp), %rdi                 # 8-byte Reload
	callq	_ZNKSt7__cxx1112basic_stringIcSt11char_traitsIcESaIcEE4sizeEv
	movq	-56(%rbp), %rdi                 # 8-byte Reload
	movq	%rax, %rsi
	movq	-16(%rbp), %rcx
	movq	-24(%rbp), %r8
	xorl	%eax, %eax
	movl	%eax, %edx
	callq	_ZNSt7__cxx1112basic_stringIcSt11char_traitsIcESaIcEE9_M_mutateEmmPKcm
.LBB50_5:
	movq	-56(%rbp), %rdi                 # 8-byte Reload
	movq	-32(%rbp), %rsi
	callq	_ZNSt7__cxx1112basic_stringIcSt11char_traitsIcESaIcEE13_M_set_lengthEm
	movq	-56(%rbp), %rax                 # 8-byte Reload
	addq	$64, %rsp
	popq	%rbp
	.cfi_def_cfa %rsp, 8
	retq
.Lfunc_end50:
	.size	_ZNSt7__cxx1112basic_stringIcSt11char_traitsIcESaIcEE9_M_appendEPKcm, .Lfunc_end50-_ZNSt7__cxx1112basic_stringIcSt11char_traitsIcESaIcEE9_M_appendEPKcm
	.cfi_endproc
                                        # -- End function
	.section	.text._ZNKSt7__cxx1112basic_stringIcSt11char_traitsIcESaIcEE8max_sizeEv,"axG",@progbits,_ZNKSt7__cxx1112basic_stringIcSt11char_traitsIcESaIcEE8max_sizeEv,comdat
	.weak	_ZNKSt7__cxx1112basic_stringIcSt11char_traitsIcESaIcEE8max_sizeEv # -- Begin function _ZNKSt7__cxx1112basic_stringIcSt11char_traitsIcESaIcEE8max_sizeEv
	.p2align	4, 0x90
	.type	_ZNKSt7__cxx1112basic_stringIcSt11char_traitsIcESaIcEE8max_sizeEv,@function
_ZNKSt7__cxx1112basic_stringIcSt11char_traitsIcESaIcEE8max_sizeEv: # @_ZNKSt7__cxx1112basic_stringIcSt11char_traitsIcESaIcEE8max_sizeEv
.Lfunc_begin8:
	.cfi_startproc
	.cfi_personality 155, DW.ref.__gxx_personality_v0
	.cfi_lsda 27, .Lexception8
# %bb.0:
	pushq	%rbp
	.cfi_def_cfa_offset 16
	.cfi_offset %rbp, -16
	movq	%rsp, %rbp
	.cfi_def_cfa_register %rbp
	subq	$32, %rsp
	movq	%rdi, -16(%rbp)
	movq	-16(%rbp), %rdi
.Ltmp34:
	callq	_ZNKSt7__cxx1112basic_stringIcSt11char_traitsIcESaIcEE16_M_get_allocatorEv
.Ltmp35:
	movq	%rax, -24(%rbp)                 # 8-byte Spill
	jmp	.LBB51_1
.LBB51_1:
	movq	-24(%rbp), %rax                 # 8-byte Reload
	movq	%rax, -8(%rbp)
	movq	$-1, %rax
	subq	$1, %rax
	shrq	%rax
	addq	$32, %rsp
	popq	%rbp
	.cfi_def_cfa %rsp, 8
	retq
.LBB51_2:
	.cfi_def_cfa %rbp, 16
.Ltmp36:
	movq	%rax, %rdi
                                        # kill: def $eax killed $edx killed $rdx
	callq	__clang_call_terminate
.Lfunc_end51:
	.size	_ZNKSt7__cxx1112basic_stringIcSt11char_traitsIcESaIcEE8max_sizeEv, .Lfunc_end51-_ZNKSt7__cxx1112basic_stringIcSt11char_traitsIcESaIcEE8max_sizeEv
	.cfi_endproc
	.section	.gcc_except_table._ZNKSt7__cxx1112basic_stringIcSt11char_traitsIcESaIcEE8max_sizeEv,"aG",@progbits,_ZNKSt7__cxx1112basic_stringIcSt11char_traitsIcESaIcEE8max_sizeEv,comdat
	.p2align	2, 0x0
GCC_except_table51:
.Lexception8:
	.byte	255                             # @LPStart Encoding = omit
	.byte	155                             # @TType Encoding = indirect pcrel sdata4
	.uleb128 .Lttbase6-.Lttbaseref6
.Lttbaseref6:
	.byte	1                               # Call site Encoding = uleb128
	.uleb128 .Lcst_end8-.Lcst_begin8
.Lcst_begin8:
	.uleb128 .Ltmp34-.Lfunc_begin8          # >> Call Site 1 <<
	.uleb128 .Ltmp35-.Ltmp34                #   Call between .Ltmp34 and .Ltmp35
	.uleb128 .Ltmp36-.Lfunc_begin8          #     jumps to .Ltmp36
	.byte	1                               #   On action: 1
.Lcst_end8:
	.byte	1                               # >> Action Record 1 <<
                                        #   Catch TypeInfo 1
	.byte	0                               #   No further actions
	.p2align	2, 0x0
                                        # >> Catch TypeInfos <<
	.long	0                               # TypeInfo 1
.Lttbase6:
	.p2align	2, 0x0
                                        # -- End function
	.section	.text._ZNKSt7__cxx1112basic_stringIcSt11char_traitsIcESaIcEE16_M_get_allocatorEv,"axG",@progbits,_ZNKSt7__cxx1112basic_stringIcSt11char_traitsIcESaIcEE16_M_get_allocatorEv,comdat
	.weak	_ZNKSt7__cxx1112basic_stringIcSt11char_traitsIcESaIcEE16_M_get_allocatorEv # -- Begin function _ZNKSt7__cxx1112basic_stringIcSt11char_traitsIcESaIcEE16_M_get_allocatorEv
	.p2align	4, 0x90
	.type	_ZNKSt7__cxx1112basic_stringIcSt11char_traitsIcESaIcEE16_M_get_allocatorEv,@function
_ZNKSt7__cxx1112basic_stringIcSt11char_traitsIcESaIcEE16_M_get_allocatorEv: # @_ZNKSt7__cxx1112basic_stringIcSt11char_traitsIcESaIcEE16_M_get_allocatorEv
	.cfi_startproc
# %bb.0:
	pushq	%rbp
	.cfi_def_cfa_offset 16
	.cfi_offset %rbp, -16
	movq	%rsp, %rbp
	.cfi_def_cfa_register %rbp
	movq	%rdi, -8(%rbp)
	movq	-8(%rbp), %rax
	popq	%rbp
	.cfi_def_cfa %rsp, 8
	retq
.Lfunc_end52:
	.size	_ZNKSt7__cxx1112basic_stringIcSt11char_traitsIcESaIcEE16_M_get_allocatorEv, .Lfunc_end52-_ZNKSt7__cxx1112basic_stringIcSt11char_traitsIcESaIcEE16_M_get_allocatorEv
	.cfi_endproc
                                        # -- End function
	.section	.text._ZNKSt7__cxx1112basic_stringIcSt11char_traitsIcESaIcEE8capacityEv,"axG",@progbits,_ZNKSt7__cxx1112basic_stringIcSt11char_traitsIcESaIcEE8capacityEv,comdat
	.weak	_ZNKSt7__cxx1112basic_stringIcSt11char_traitsIcESaIcEE8capacityEv # -- Begin function _ZNKSt7__cxx1112basic_stringIcSt11char_traitsIcESaIcEE8capacityEv
	.p2align	4, 0x90
	.type	_ZNKSt7__cxx1112basic_stringIcSt11char_traitsIcESaIcEE8capacityEv,@function
_ZNKSt7__cxx1112basic_stringIcSt11char_traitsIcESaIcEE8capacityEv: # @_ZNKSt7__cxx1112basic_stringIcSt11char_traitsIcESaIcEE8capacityEv
.Lfunc_begin9:
	.cfi_startproc
	.cfi_personality 155, DW.ref.__gxx_personality_v0
	.cfi_lsda 27, .Lexception9
# %bb.0:
	pushq	%rbp
	.cfi_def_cfa_offset 16
	.cfi_offset %rbp, -16
	movq	%rsp, %rbp
	.cfi_def_cfa_register %rbp
	subq	$32, %rsp
	movq	%rdi, -8(%rbp)
	movq	-8(%rbp), %rdi
	movq	%rdi, -24(%rbp)                 # 8-byte Spill
.Ltmp37:
	callq	_ZNKSt7__cxx1112basic_stringIcSt11char_traitsIcESaIcEE11_M_is_localEv
.Ltmp38:
	movb	%al, -9(%rbp)                   # 1-byte Spill
	jmp	.LBB53_1
.LBB53_1:
	movb	-9(%rbp), %al                   # 1-byte Reload
	testb	$1, %al
	jne	.LBB53_2
	jmp	.LBB53_3
.LBB53_2:
	movl	$15, %eax
	movq	%rax, -32(%rbp)                 # 8-byte Spill
	jmp	.LBB53_4
.LBB53_3:
	movq	-24(%rbp), %rax                 # 8-byte Reload
	movq	16(%rax), %rax
	movq	%rax, -32(%rbp)                 # 8-byte Spill
.LBB53_4:
	movq	-32(%rbp), %rax                 # 8-byte Reload
	addq	$32, %rsp
	popq	%rbp
	.cfi_def_cfa %rsp, 8
	retq
.LBB53_5:
	.cfi_def_cfa %rbp, 16
.Ltmp39:
	movq	%rax, %rdi
                                        # kill: def $eax killed $edx killed $rdx
	callq	__clang_call_terminate
.Lfunc_end53:
	.size	_ZNKSt7__cxx1112basic_stringIcSt11char_traitsIcESaIcEE8capacityEv, .Lfunc_end53-_ZNKSt7__cxx1112basic_stringIcSt11char_traitsIcESaIcEE8capacityEv
	.cfi_endproc
	.section	.gcc_except_table._ZNKSt7__cxx1112basic_stringIcSt11char_traitsIcESaIcEE8capacityEv,"aG",@progbits,_ZNKSt7__cxx1112basic_stringIcSt11char_traitsIcESaIcEE8capacityEv,comdat
	.p2align	2, 0x0
GCC_except_table53:
.Lexception9:
	.byte	255                             # @LPStart Encoding = omit
	.byte	155                             # @TType Encoding = indirect pcrel sdata4
	.uleb128 .Lttbase7-.Lttbaseref7
.Lttbaseref7:
	.byte	1                               # Call site Encoding = uleb128
	.uleb128 .Lcst_end9-.Lcst_begin9
.Lcst_begin9:
	.uleb128 .Ltmp37-.Lfunc_begin9          # >> Call Site 1 <<
	.uleb128 .Ltmp38-.Ltmp37                #   Call between .Ltmp37 and .Ltmp38
	.uleb128 .Ltmp39-.Lfunc_begin9          #     jumps to .Ltmp39
	.byte	1                               #   On action: 1
.Lcst_end9:
	.byte	1                               # >> Action Record 1 <<
                                        #   Catch TypeInfo 1
	.byte	0                               #   No further actions
	.p2align	2, 0x0
                                        # >> Catch TypeInfos <<
	.long	0                               # TypeInfo 1
.Lttbase7:
	.p2align	2, 0x0
                                        # -- End function
	.section	.text._ZNSt7__cxx1112basic_stringIcSt11char_traitsIcESaIcEE7_S_copyEPcPKcm,"axG",@progbits,_ZNSt7__cxx1112basic_stringIcSt11char_traitsIcESaIcEE7_S_copyEPcPKcm,comdat
	.weak	_ZNSt7__cxx1112basic_stringIcSt11char_traitsIcESaIcEE7_S_copyEPcPKcm # -- Begin function _ZNSt7__cxx1112basic_stringIcSt11char_traitsIcESaIcEE7_S_copyEPcPKcm
	.p2align	4, 0x90
	.type	_ZNSt7__cxx1112basic_stringIcSt11char_traitsIcESaIcEE7_S_copyEPcPKcm,@function
_ZNSt7__cxx1112basic_stringIcSt11char_traitsIcESaIcEE7_S_copyEPcPKcm: # @_ZNSt7__cxx1112basic_stringIcSt11char_traitsIcESaIcEE7_S_copyEPcPKcm
	.cfi_startproc
# %bb.0:
	pushq	%rbp
	.cfi_def_cfa_offset 16
	.cfi_offset %rbp, -16
	movq	%rsp, %rbp
	.cfi_def_cfa_register %rbp
	subq	$32, %rsp
	movq	%rdi, -8(%rbp)
	movq	%rsi, -16(%rbp)
	movq	%rdx, -24(%rbp)
	cmpq	$1, -24(%rbp)
	jne	.LBB54_2
# %bb.1:
	movq	-8(%rbp), %rdi
	movq	-16(%rbp), %rsi
	callq	_ZNSt11char_traitsIcE6assignERcRKc
	jmp	.LBB54_3
.LBB54_2:
	movq	-8(%rbp), %rdi
	movq	-16(%rbp), %rsi
	movq	-24(%rbp), %rdx
	callq	_ZNSt11char_traitsIcE4copyEPcPKcm
.LBB54_3:
	addq	$32, %rsp
	popq	%rbp
	.cfi_def_cfa %rsp, 8
	retq
.Lfunc_end54:
	.size	_ZNSt7__cxx1112basic_stringIcSt11char_traitsIcESaIcEE7_S_copyEPcPKcm, .Lfunc_end54-_ZNSt7__cxx1112basic_stringIcSt11char_traitsIcESaIcEE7_S_copyEPcPKcm
	.cfi_endproc
                                        # -- End function
	.section	.text._ZNSt7__cxx1112basic_stringIcSt11char_traitsIcESaIcEE9_M_mutateEmmPKcm,"axG",@progbits,_ZNSt7__cxx1112basic_stringIcSt11char_traitsIcESaIcEE9_M_mutateEmmPKcm,comdat
	.weak	_ZNSt7__cxx1112basic_stringIcSt11char_traitsIcESaIcEE9_M_mutateEmmPKcm # -- Begin function _ZNSt7__cxx1112basic_stringIcSt11char_traitsIcESaIcEE9_M_mutateEmmPKcm
	.p2align	4, 0x90
	.type	_ZNSt7__cxx1112basic_stringIcSt11char_traitsIcESaIcEE9_M_mutateEmmPKcm,@function
_ZNSt7__cxx1112basic_stringIcSt11char_traitsIcESaIcEE9_M_mutateEmmPKcm: # @_ZNSt7__cxx1112basic_stringIcSt11char_traitsIcESaIcEE9_M_mutateEmmPKcm
	.cfi_startproc
# %bb.0:
	pushq	%rbp
	.cfi_def_cfa_offset 16
	.cfi_offset %rbp, -16
	movq	%rsp, %rbp
	.cfi_def_cfa_register %rbp
	subq	$96, %rsp
	movq	%rdi, -8(%rbp)
	movq	%rsi, -16(%rbp)
	movq	%rdx, -24(%rbp)
	movq	%rcx, -32(%rbp)
	movq	%r8, -40(%rbp)
	movq	-8(%rbp), %rdi
	movq	%rdi, -72(%rbp)                 # 8-byte Spill
	callq	_ZNKSt7__cxx1112basic_stringIcSt11char_traitsIcESaIcEE6lengthEv
	movq	-72(%rbp), %rdi                 # 8-byte Reload
	subq	-16(%rbp), %rax
	subq	-24(%rbp), %rax
	movq	%rax, -48(%rbp)
	callq	_ZNKSt7__cxx1112basic_stringIcSt11char_traitsIcESaIcEE6lengthEv
	movq	-72(%rbp), %rdi                 # 8-byte Reload
	addq	-40(%rbp), %rax
	subq	-24(%rbp), %rax
	movq	%rax, -56(%rbp)
	callq	_ZNKSt7__cxx1112basic_stringIcSt11char_traitsIcESaIcEE8capacityEv
	movq	-72(%rbp), %rdi                 # 8-byte Reload
	movq	%rax, %rdx
	leaq	-56(%rbp), %rsi
	callq	_ZNSt7__cxx1112basic_stringIcSt11char_traitsIcESaIcEE9_M_createERmm
	movq	%rax, -64(%rbp)
	cmpq	$0, -16(%rbp)
	je	.LBB55_2
# %bb.1:
	movq	-72(%rbp), %rdi                 # 8-byte Reload
	movq	-64(%rbp), %rax
	movq	%rax, -80(%rbp)                 # 8-byte Spill
	callq	_ZNKSt7__cxx1112basic_stringIcSt11char_traitsIcESaIcEE7_M_dataEv
	movq	-80(%rbp), %rdi                 # 8-byte Reload
	movq	%rax, %rsi
	movq	-16(%rbp), %rdx
	callq	_ZNSt7__cxx1112basic_stringIcSt11char_traitsIcESaIcEE7_S_copyEPcPKcm
.LBB55_2:
	cmpq	$0, -32(%rbp)
	je	.LBB55_5
# %bb.3:
	cmpq	$0, -40(%rbp)
	je	.LBB55_5
# %bb.4:
	movq	-64(%rbp), %rdi
	addq	-16(%rbp), %rdi
	movq	-32(%rbp), %rsi
	movq	-40(%rbp), %rdx
	callq	_ZNSt7__cxx1112basic_stringIcSt11char_traitsIcESaIcEE7_S_copyEPcPKcm
.LBB55_5:
	cmpq	$0, -48(%rbp)
	je	.LBB55_7
# %bb.6:
	movq	-72(%rbp), %rdi                 # 8-byte Reload
	movq	-64(%rbp), %rax
	addq	-16(%rbp), %rax
	addq	-40(%rbp), %rax
	movq	%rax, -88(%rbp)                 # 8-byte Spill
	callq	_ZNKSt7__cxx1112basic_stringIcSt11char_traitsIcESaIcEE7_M_dataEv
	movq	-88(%rbp), %rdi                 # 8-byte Reload
	movq	%rax, %rsi
	addq	-16(%rbp), %rsi
	addq	-24(%rbp), %rsi
	movq	-48(%rbp), %rdx
	callq	_ZNSt7__cxx1112basic_stringIcSt11char_traitsIcESaIcEE7_S_copyEPcPKcm
.LBB55_7:
	movq	-72(%rbp), %rdi                 # 8-byte Reload
	callq	_ZNSt7__cxx1112basic_stringIcSt11char_traitsIcESaIcEE10_M_disposeEv
	movq	-72(%rbp), %rdi                 # 8-byte Reload
	movq	-64(%rbp), %rsi
	callq	_ZNSt7__cxx1112basic_stringIcSt11char_traitsIcESaIcEE7_M_dataEPc
	movq	-72(%rbp), %rdi                 # 8-byte Reload
	movq	-56(%rbp), %rsi
	callq	_ZNSt7__cxx1112basic_stringIcSt11char_traitsIcESaIcEE11_M_capacityEm
	addq	$96, %rsp
	popq	%rbp
	.cfi_def_cfa %rsp, 8
	retq
.Lfunc_end55:
	.size	_ZNSt7__cxx1112basic_stringIcSt11char_traitsIcESaIcEE9_M_mutateEmmPKcm, .Lfunc_end55-_ZNSt7__cxx1112basic_stringIcSt11char_traitsIcESaIcEE9_M_mutateEmmPKcm
	.cfi_endproc
                                        # -- End function
	.section	.text._ZNKSt7__cxx1112basic_stringIcSt11char_traitsIcESaIcEE11_M_is_localEv,"axG",@progbits,_ZNKSt7__cxx1112basic_stringIcSt11char_traitsIcESaIcEE11_M_is_localEv,comdat
	.weak	_ZNKSt7__cxx1112basic_stringIcSt11char_traitsIcESaIcEE11_M_is_localEv # -- Begin function _ZNKSt7__cxx1112basic_stringIcSt11char_traitsIcESaIcEE11_M_is_localEv
	.p2align	4, 0x90
	.type	_ZNKSt7__cxx1112basic_stringIcSt11char_traitsIcESaIcEE11_M_is_localEv,@function
_ZNKSt7__cxx1112basic_stringIcSt11char_traitsIcESaIcEE11_M_is_localEv: # @_ZNKSt7__cxx1112basic_stringIcSt11char_traitsIcESaIcEE11_M_is_localEv
	.cfi_startproc
# %bb.0:
	pushq	%rbp
	.cfi_def_cfa_offset 16
	.cfi_offset %rbp, -16
	movq	%rsp, %rbp
	.cfi_def_cfa_register %rbp
	subq	$32, %rsp
	movq	%rdi, -16(%rbp)
	movq	-16(%rbp), %rdi
	movq	%rdi, -32(%rbp)                 # 8-byte Spill
	callq	_ZNKSt7__cxx1112basic_stringIcSt11char_traitsIcESaIcEE7_M_dataEv
	movq	-32(%rbp), %rdi                 # 8-byte Reload
	movq	%rax, -24(%rbp)                 # 8-byte Spill
	callq	_ZNKSt7__cxx1112basic_stringIcSt11char_traitsIcESaIcEE13_M_local_dataEv
	movq	%rax, %rcx
	movq	-24(%rbp), %rax                 # 8-byte Reload
	cmpq	%rcx, %rax
	jne	.LBB56_4
# %bb.1:
	movq	-32(%rbp), %rax                 # 8-byte Reload
	cmpq	$15, 8(%rax)
	jbe	.LBB56_3
# %bb.2:
.LBB56_3:
	movb	$1, -1(%rbp)
	jmp	.LBB56_5
.LBB56_4:
	movb	$0, -1(%rbp)
.LBB56_5:
	movb	-1(%rbp), %al
	andb	$1, %al
	movzbl	%al, %eax
	addq	$32, %rsp
	popq	%rbp
	.cfi_def_cfa %rsp, 8
	retq
.Lfunc_end56:
	.size	_ZNKSt7__cxx1112basic_stringIcSt11char_traitsIcESaIcEE11_M_is_localEv, .Lfunc_end56-_ZNKSt7__cxx1112basic_stringIcSt11char_traitsIcESaIcEE11_M_is_localEv
	.cfi_endproc
                                        # -- End function
	.section	.text._ZNKSt7__cxx1112basic_stringIcSt11char_traitsIcESaIcEE13_M_local_dataEv,"axG",@progbits,_ZNKSt7__cxx1112basic_stringIcSt11char_traitsIcESaIcEE13_M_local_dataEv,comdat
	.weak	_ZNKSt7__cxx1112basic_stringIcSt11char_traitsIcESaIcEE13_M_local_dataEv # -- Begin function _ZNKSt7__cxx1112basic_stringIcSt11char_traitsIcESaIcEE13_M_local_dataEv
	.p2align	4, 0x90
	.type	_ZNKSt7__cxx1112basic_stringIcSt11char_traitsIcESaIcEE13_M_local_dataEv,@function
_ZNKSt7__cxx1112basic_stringIcSt11char_traitsIcESaIcEE13_M_local_dataEv: # @_ZNKSt7__cxx1112basic_stringIcSt11char_traitsIcESaIcEE13_M_local_dataEv
	.cfi_startproc
# %bb.0:
	pushq	%rbp
	.cfi_def_cfa_offset 16
	.cfi_offset %rbp, -16
	movq	%rsp, %rbp
	.cfi_def_cfa_register %rbp
	subq	$16, %rsp
	movq	%rdi, -8(%rbp)
	movq	-8(%rbp), %rdi
	addq	$16, %rdi
	callq	_ZNSt19__ptr_traits_ptr_toIPKcS0_Lb0EE10pointer_toERS0_
	addq	$16, %rsp
	popq	%rbp
	.cfi_def_cfa %rsp, 8
	retq
.Lfunc_end57:
	.size	_ZNKSt7__cxx1112basic_stringIcSt11char_traitsIcESaIcEE13_M_local_dataEv, .Lfunc_end57-_ZNKSt7__cxx1112basic_stringIcSt11char_traitsIcESaIcEE13_M_local_dataEv
	.cfi_endproc
                                        # -- End function
	.section	.text._ZNSt19__ptr_traits_ptr_toIPKcS0_Lb0EE10pointer_toERS0_,"axG",@progbits,_ZNSt19__ptr_traits_ptr_toIPKcS0_Lb0EE10pointer_toERS0_,comdat
	.weak	_ZNSt19__ptr_traits_ptr_toIPKcS0_Lb0EE10pointer_toERS0_ # -- Begin function _ZNSt19__ptr_traits_ptr_toIPKcS0_Lb0EE10pointer_toERS0_
	.p2align	4, 0x90
	.type	_ZNSt19__ptr_traits_ptr_toIPKcS0_Lb0EE10pointer_toERS0_,@function
_ZNSt19__ptr_traits_ptr_toIPKcS0_Lb0EE10pointer_toERS0_: # @_ZNSt19__ptr_traits_ptr_toIPKcS0_Lb0EE10pointer_toERS0_
	.cfi_startproc
# %bb.0:
	pushq	%rbp
	.cfi_def_cfa_offset 16
	.cfi_offset %rbp, -16
	movq	%rsp, %rbp
	.cfi_def_cfa_register %rbp
	movq	%rdi, -8(%rbp)
	movq	-8(%rbp), %rax
	popq	%rbp
	.cfi_def_cfa %rsp, 8
	retq
.Lfunc_end58:
	.size	_ZNSt19__ptr_traits_ptr_toIPKcS0_Lb0EE10pointer_toERS0_, .Lfunc_end58-_ZNSt19__ptr_traits_ptr_toIPKcS0_Lb0EE10pointer_toERS0_
	.cfi_endproc
                                        # -- End function
	.section	.text._ZNSt11char_traitsIcE4copyEPcPKcm,"axG",@progbits,_ZNSt11char_traitsIcE4copyEPcPKcm,comdat
	.weak	_ZNSt11char_traitsIcE4copyEPcPKcm # -- Begin function _ZNSt11char_traitsIcE4copyEPcPKcm
	.p2align	4, 0x90
	.type	_ZNSt11char_traitsIcE4copyEPcPKcm,@function
_ZNSt11char_traitsIcE4copyEPcPKcm:      # @_ZNSt11char_traitsIcE4copyEPcPKcm
	.cfi_startproc
# %bb.0:
	pushq	%rbp
	.cfi_def_cfa_offset 16
	.cfi_offset %rbp, -16
	movq	%rsp, %rbp
	.cfi_def_cfa_register %rbp
	subq	$48, %rsp
	movq	%rdi, -16(%rbp)
	movq	%rsi, -24(%rbp)
	movq	%rdx, -32(%rbp)
	cmpq	$0, -32(%rbp)
	jne	.LBB59_2
# %bb.1:
	movq	-16(%rbp), %rax
	movq	%rax, -8(%rbp)
	jmp	.LBB59_3
.LBB59_2:
	movq	-16(%rbp), %rdi
	movq	%rdi, -40(%rbp)                 # 8-byte Spill
	movq	-24(%rbp), %rsi
	movq	-32(%rbp), %rdx
	callq	memcpy@PLT
	movq	-40(%rbp), %rax                 # 8-byte Reload
	movq	%rax, -8(%rbp)
.LBB59_3:
	movq	-8(%rbp), %rax
	addq	$48, %rsp
	popq	%rbp
	.cfi_def_cfa %rsp, 8
	retq
.Lfunc_end59:
	.size	_ZNSt11char_traitsIcE4copyEPcPKcm, .Lfunc_end59-_ZNSt11char_traitsIcE4copyEPcPKcm
	.cfi_endproc
                                        # -- End function
	.section	.text._ZNKSt7__cxx1112basic_stringIcSt11char_traitsIcESaIcEE6lengthEv,"axG",@progbits,_ZNKSt7__cxx1112basic_stringIcSt11char_traitsIcESaIcEE6lengthEv,comdat
	.weak	_ZNKSt7__cxx1112basic_stringIcSt11char_traitsIcESaIcEE6lengthEv # -- Begin function _ZNKSt7__cxx1112basic_stringIcSt11char_traitsIcESaIcEE6lengthEv
	.p2align	4, 0x90
	.type	_ZNKSt7__cxx1112basic_stringIcSt11char_traitsIcESaIcEE6lengthEv,@function
_ZNKSt7__cxx1112basic_stringIcSt11char_traitsIcESaIcEE6lengthEv: # @_ZNKSt7__cxx1112basic_stringIcSt11char_traitsIcESaIcEE6lengthEv
	.cfi_startproc
# %bb.0:
	pushq	%rbp
	.cfi_def_cfa_offset 16
	.cfi_offset %rbp, -16
	movq	%rsp, %rbp
	.cfi_def_cfa_register %rbp
	movq	%rdi, -8(%rbp)
	movq	-8(%rbp), %rax
	movq	8(%rax), %rax
	popq	%rbp
	.cfi_def_cfa %rsp, 8
	retq
.Lfunc_end60:
	.size	_ZNKSt7__cxx1112basic_stringIcSt11char_traitsIcESaIcEE6lengthEv, .Lfunc_end60-_ZNKSt7__cxx1112basic_stringIcSt11char_traitsIcESaIcEE6lengthEv
	.cfi_endproc
                                        # -- End function
	.section	.text._ZNSt7__cxx1112basic_stringIcSt11char_traitsIcESaIcEE9_M_createERmm,"axG",@progbits,_ZNSt7__cxx1112basic_stringIcSt11char_traitsIcESaIcEE9_M_createERmm,comdat
	.weak	_ZNSt7__cxx1112basic_stringIcSt11char_traitsIcESaIcEE9_M_createERmm # -- Begin function _ZNSt7__cxx1112basic_stringIcSt11char_traitsIcESaIcEE9_M_createERmm
	.p2align	4, 0x90
	.type	_ZNSt7__cxx1112basic_stringIcSt11char_traitsIcESaIcEE9_M_createERmm,@function
_ZNSt7__cxx1112basic_stringIcSt11char_traitsIcESaIcEE9_M_createERmm: # @_ZNSt7__cxx1112basic_stringIcSt11char_traitsIcESaIcEE9_M_createERmm
	.cfi_startproc
# %bb.0:
	pushq	%rbp
	.cfi_def_cfa_offset 16
	.cfi_offset %rbp, -16
	movq	%rsp, %rbp
	.cfi_def_cfa_register %rbp
	subq	$48, %rsp
	movq	%rdi, -8(%rbp)
	movq	%rsi, -16(%rbp)
	movq	%rdx, -24(%rbp)
	movq	-8(%rbp), %rdi
	movq	%rdi, -40(%rbp)                 # 8-byte Spill
	movq	-16(%rbp), %rax
	movq	(%rax), %rax
	movq	%rax, -32(%rbp)                 # 8-byte Spill
	callq	_ZNKSt7__cxx1112basic_stringIcSt11char_traitsIcESaIcEE8max_sizeEv
	movq	%rax, %rcx
	movq	-32(%rbp), %rax                 # 8-byte Reload
	cmpq	%rcx, %rax
	jbe	.LBB61_2
# %bb.1:
	leaq	.L.str.3(%rip), %rdi
	callq	_ZSt20__throw_length_errorPKc@PLT
.LBB61_2:
	movq	-16(%rbp), %rax
	movq	(%rax), %rax
	cmpq	-24(%rbp), %rax
	jbe	.LBB61_7
# %bb.3:
	movq	-16(%rbp), %rax
	movq	(%rax), %rax
	movq	-24(%rbp), %rcx
	shlq	%rcx
	cmpq	%rcx, %rax
	jae	.LBB61_7
# %bb.4:
	movq	-40(%rbp), %rdi                 # 8-byte Reload
	movq	-24(%rbp), %rcx
	shlq	%rcx
	movq	-16(%rbp), %rax
	movq	%rcx, (%rax)
	movq	-16(%rbp), %rax
	movq	(%rax), %rax
	movq	%rax, -48(%rbp)                 # 8-byte Spill
	callq	_ZNKSt7__cxx1112basic_stringIcSt11char_traitsIcESaIcEE8max_sizeEv
	movq	%rax, %rcx
	movq	-48(%rbp), %rax                 # 8-byte Reload
	cmpq	%rcx, %rax
	jbe	.LBB61_6
# %bb.5:
	movq	-40(%rbp), %rdi                 # 8-byte Reload
	callq	_ZNKSt7__cxx1112basic_stringIcSt11char_traitsIcESaIcEE8max_sizeEv
	movq	%rax, %rcx
	movq	-16(%rbp), %rax
	movq	%rcx, (%rax)
.LBB61_6:
	jmp	.LBB61_7
.LBB61_7:
	movq	-40(%rbp), %rdi                 # 8-byte Reload
	callq	_ZNSt7__cxx1112basic_stringIcSt11char_traitsIcESaIcEE16_M_get_allocatorEv
	movq	%rax, %rdi
	movq	-16(%rbp), %rax
	movq	(%rax), %rsi
	addq	$1, %rsi
	callq	_ZNSt7__cxx1112basic_stringIcSt11char_traitsIcESaIcEE11_S_allocateERS3_m
	addq	$48, %rsp
	popq	%rbp
	.cfi_def_cfa %rsp, 8
	retq
.Lfunc_end61:
	.size	_ZNSt7__cxx1112basic_stringIcSt11char_traitsIcESaIcEE9_M_createERmm, .Lfunc_end61-_ZNSt7__cxx1112basic_stringIcSt11char_traitsIcESaIcEE9_M_createERmm
	.cfi_endproc
                                        # -- End function
	.section	.text._ZNSt7__cxx1112basic_stringIcSt11char_traitsIcESaIcEE10_M_disposeEv,"axG",@progbits,_ZNSt7__cxx1112basic_stringIcSt11char_traitsIcESaIcEE10_M_disposeEv,comdat
	.weak	_ZNSt7__cxx1112basic_stringIcSt11char_traitsIcESaIcEE10_M_disposeEv # -- Begin function _ZNSt7__cxx1112basic_stringIcSt11char_traitsIcESaIcEE10_M_disposeEv
	.p2align	4, 0x90
	.type	_ZNSt7__cxx1112basic_stringIcSt11char_traitsIcESaIcEE10_M_disposeEv,@function
_ZNSt7__cxx1112basic_stringIcSt11char_traitsIcESaIcEE10_M_disposeEv: # @_ZNSt7__cxx1112basic_stringIcSt11char_traitsIcESaIcEE10_M_disposeEv
	.cfi_startproc
# %bb.0:
	pushq	%rbp
	.cfi_def_cfa_offset 16
	.cfi_offset %rbp, -16
	movq	%rsp, %rbp
	.cfi_def_cfa_register %rbp
	subq	$16, %rsp
	movq	%rdi, -8(%rbp)
	movq	-8(%rbp), %rdi
	movq	%rdi, -16(%rbp)                 # 8-byte Spill
	callq	_ZNKSt7__cxx1112basic_stringIcSt11char_traitsIcESaIcEE11_M_is_localEv
	testb	$1, %al
	jne	.LBB62_2
# %bb.1:
	movq	-16(%rbp), %rdi                 # 8-byte Reload
	movq	16(%rdi), %rsi
	callq	_ZNSt7__cxx1112basic_stringIcSt11char_traitsIcESaIcEE10_M_destroyEm
.LBB62_2:
	addq	$16, %rsp
	popq	%rbp
	.cfi_def_cfa %rsp, 8
	retq
.Lfunc_end62:
	.size	_ZNSt7__cxx1112basic_stringIcSt11char_traitsIcESaIcEE10_M_disposeEv, .Lfunc_end62-_ZNSt7__cxx1112basic_stringIcSt11char_traitsIcESaIcEE10_M_disposeEv
	.cfi_endproc
                                        # -- End function
	.section	.text._ZNSt7__cxx1112basic_stringIcSt11char_traitsIcESaIcEE7_M_dataEPc,"axG",@progbits,_ZNSt7__cxx1112basic_stringIcSt11char_traitsIcESaIcEE7_M_dataEPc,comdat
	.weak	_ZNSt7__cxx1112basic_stringIcSt11char_traitsIcESaIcEE7_M_dataEPc # -- Begin function _ZNSt7__cxx1112basic_stringIcSt11char_traitsIcESaIcEE7_M_dataEPc
	.p2align	4, 0x90
	.type	_ZNSt7__cxx1112basic_stringIcSt11char_traitsIcESaIcEE7_M_dataEPc,@function
_ZNSt7__cxx1112basic_stringIcSt11char_traitsIcESaIcEE7_M_dataEPc: # @_ZNSt7__cxx1112basic_stringIcSt11char_traitsIcESaIcEE7_M_dataEPc
	.cfi_startproc
# %bb.0:
	pushq	%rbp
	.cfi_def_cfa_offset 16
	.cfi_offset %rbp, -16
	movq	%rsp, %rbp
	.cfi_def_cfa_register %rbp
	movq	%rdi, -8(%rbp)
	movq	%rsi, -16(%rbp)
	movq	-8(%rbp), %rax
	movq	-16(%rbp), %rcx
	movq	%rcx, (%rax)
	popq	%rbp
	.cfi_def_cfa %rsp, 8
	retq
.Lfunc_end63:
	.size	_ZNSt7__cxx1112basic_stringIcSt11char_traitsIcESaIcEE7_M_dataEPc, .Lfunc_end63-_ZNSt7__cxx1112basic_stringIcSt11char_traitsIcESaIcEE7_M_dataEPc
	.cfi_endproc
                                        # -- End function
	.section	.text._ZNSt7__cxx1112basic_stringIcSt11char_traitsIcESaIcEE11_M_capacityEm,"axG",@progbits,_ZNSt7__cxx1112basic_stringIcSt11char_traitsIcESaIcEE11_M_capacityEm,comdat
	.weak	_ZNSt7__cxx1112basic_stringIcSt11char_traitsIcESaIcEE11_M_capacityEm # -- Begin function _ZNSt7__cxx1112basic_stringIcSt11char_traitsIcESaIcEE11_M_capacityEm
	.p2align	4, 0x90
	.type	_ZNSt7__cxx1112basic_stringIcSt11char_traitsIcESaIcEE11_M_capacityEm,@function
_ZNSt7__cxx1112basic_stringIcSt11char_traitsIcESaIcEE11_M_capacityEm: # @_ZNSt7__cxx1112basic_stringIcSt11char_traitsIcESaIcEE11_M_capacityEm
	.cfi_startproc
# %bb.0:
	pushq	%rbp
	.cfi_def_cfa_offset 16
	.cfi_offset %rbp, -16
	movq	%rsp, %rbp
	.cfi_def_cfa_register %rbp
	movq	%rdi, -8(%rbp)
	movq	%rsi, -16(%rbp)
	movq	-8(%rbp), %rax
	movq	-16(%rbp), %rcx
	movq	%rcx, 16(%rax)
	popq	%rbp
	.cfi_def_cfa %rsp, 8
	retq
.Lfunc_end64:
	.size	_ZNSt7__cxx1112basic_stringIcSt11char_traitsIcESaIcEE11_M_capacityEm, .Lfunc_end64-_ZNSt7__cxx1112basic_stringIcSt11char_traitsIcESaIcEE11_M_capacityEm
	.cfi_endproc
                                        # -- End function
	.section	.text._ZNSt7__cxx1112basic_stringIcSt11char_traitsIcESaIcEE11_S_allocateERS3_m,"axG",@progbits,_ZNSt7__cxx1112basic_stringIcSt11char_traitsIcESaIcEE11_S_allocateERS3_m,comdat
	.weak	_ZNSt7__cxx1112basic_stringIcSt11char_traitsIcESaIcEE11_S_allocateERS3_m # -- Begin function _ZNSt7__cxx1112basic_stringIcSt11char_traitsIcESaIcEE11_S_allocateERS3_m
	.p2align	4, 0x90
	.type	_ZNSt7__cxx1112basic_stringIcSt11char_traitsIcESaIcEE11_S_allocateERS3_m,@function
_ZNSt7__cxx1112basic_stringIcSt11char_traitsIcESaIcEE11_S_allocateERS3_m: # @_ZNSt7__cxx1112basic_stringIcSt11char_traitsIcESaIcEE11_S_allocateERS3_m
	.cfi_startproc
# %bb.0:
	pushq	%rbp
	.cfi_def_cfa_offset 16
	.cfi_offset %rbp, -16
	movq	%rsp, %rbp
	.cfi_def_cfa_register %rbp
	subq	$64, %rsp
	movq	%rdi, -40(%rbp)
	movq	%rsi, -48(%rbp)
	movq	-40(%rbp), %rcx
	movq	-48(%rbp), %rax
	movq	%rcx, -24(%rbp)
	movq	%rax, -32(%rbp)
	movq	-24(%rbp), %rcx
	movq	-32(%rbp), %rax
	movq	%rcx, -8(%rbp)
	movq	%rax, -16(%rbp)
	movq	-8(%rbp), %rdi
	movq	-16(%rbp), %rsi
	xorl	%eax, %eax
	movl	%eax, %edx
	callq	_ZNSt15__new_allocatorIcE8allocateEmPKv
	movq	%rax, -56(%rbp)
	movq	-56(%rbp), %rax
	addq	$64, %rsp
	popq	%rbp
	.cfi_def_cfa %rsp, 8
	retq
.Lfunc_end65:
	.size	_ZNSt7__cxx1112basic_stringIcSt11char_traitsIcESaIcEE11_S_allocateERS3_m, .Lfunc_end65-_ZNSt7__cxx1112basic_stringIcSt11char_traitsIcESaIcEE11_S_allocateERS3_m
	.cfi_endproc
                                        # -- End function
	.section	.text._ZNSt7__cxx1112basic_stringIcSt11char_traitsIcESaIcEE16_M_get_allocatorEv,"axG",@progbits,_ZNSt7__cxx1112basic_stringIcSt11char_traitsIcESaIcEE16_M_get_allocatorEv,comdat
	.weak	_ZNSt7__cxx1112basic_stringIcSt11char_traitsIcESaIcEE16_M_get_allocatorEv # -- Begin function _ZNSt7__cxx1112basic_stringIcSt11char_traitsIcESaIcEE16_M_get_allocatorEv
	.p2align	4, 0x90
	.type	_ZNSt7__cxx1112basic_stringIcSt11char_traitsIcESaIcEE16_M_get_allocatorEv,@function
_ZNSt7__cxx1112basic_stringIcSt11char_traitsIcESaIcEE16_M_get_allocatorEv: # @_ZNSt7__cxx1112basic_stringIcSt11char_traitsIcESaIcEE16_M_get_allocatorEv
	.cfi_startproc
# %bb.0:
	pushq	%rbp
	.cfi_def_cfa_offset 16
	.cfi_offset %rbp, -16
	movq	%rsp, %rbp
	.cfi_def_cfa_register %rbp
	movq	%rdi, -8(%rbp)
	movq	-8(%rbp), %rax
	popq	%rbp
	.cfi_def_cfa %rsp, 8
	retq
.Lfunc_end66:
	.size	_ZNSt7__cxx1112basic_stringIcSt11char_traitsIcESaIcEE16_M_get_allocatorEv, .Lfunc_end66-_ZNSt7__cxx1112basic_stringIcSt11char_traitsIcESaIcEE16_M_get_allocatorEv
	.cfi_endproc
                                        # -- End function
	.section	.text._ZNSt15__new_allocatorIcE8allocateEmPKv,"axG",@progbits,_ZNSt15__new_allocatorIcE8allocateEmPKv,comdat
	.weak	_ZNSt15__new_allocatorIcE8allocateEmPKv # -- Begin function _ZNSt15__new_allocatorIcE8allocateEmPKv
	.p2align	4, 0x90
	.type	_ZNSt15__new_allocatorIcE8allocateEmPKv,@function
_ZNSt15__new_allocatorIcE8allocateEmPKv: # @_ZNSt15__new_allocatorIcE8allocateEmPKv
	.cfi_startproc
# %bb.0:
	pushq	%rbp
	.cfi_def_cfa_offset 16
	.cfi_offset %rbp, -16
	movq	%rsp, %rbp
	.cfi_def_cfa_register %rbp
	subq	$32, %rsp
	movq	%rdi, -16(%rbp)
	movq	%rsi, -24(%rbp)
	movq	%rdx, -32(%rbp)
	movq	-16(%rbp), %rcx
	movq	-24(%rbp), %rax
	movq	%rcx, -8(%rbp)
	movabsq	$9223372036854775807, %rcx      # imm = 0x7FFFFFFFFFFFFFFF
	cmpq	%rcx, %rax
	jbe	.LBB67_4
# %bb.1:
	cmpq	$-1, -24(%rbp)
	jbe	.LBB67_3
# %bb.2:
	callq	_ZSt28__throw_bad_array_new_lengthv@PLT
.LBB67_3:
	callq	_ZSt17__throw_bad_allocv@PLT
.LBB67_4:
	movq	-24(%rbp), %rdi
	shlq	$0, %rdi
	callq	_Znwm@PLT
	addq	$32, %rsp
	popq	%rbp
	.cfi_def_cfa %rsp, 8
	retq
.Lfunc_end67:
	.size	_ZNSt15__new_allocatorIcE8allocateEmPKv, .Lfunc_end67-_ZNSt15__new_allocatorIcE8allocateEmPKv
	.cfi_endproc
                                        # -- End function
	.section	.text._ZNSt7__cxx1112basic_stringIcSt11char_traitsIcESaIcEE10_M_destroyEm,"axG",@progbits,_ZNSt7__cxx1112basic_stringIcSt11char_traitsIcESaIcEE10_M_destroyEm,comdat
	.weak	_ZNSt7__cxx1112basic_stringIcSt11char_traitsIcESaIcEE10_M_destroyEm # -- Begin function _ZNSt7__cxx1112basic_stringIcSt11char_traitsIcESaIcEE10_M_destroyEm
	.p2align	4, 0x90
	.type	_ZNSt7__cxx1112basic_stringIcSt11char_traitsIcESaIcEE10_M_destroyEm,@function
_ZNSt7__cxx1112basic_stringIcSt11char_traitsIcESaIcEE10_M_destroyEm: # @_ZNSt7__cxx1112basic_stringIcSt11char_traitsIcESaIcEE10_M_destroyEm
	.cfi_startproc
# %bb.0:
	pushq	%rbp
	.cfi_def_cfa_offset 16
	.cfi_offset %rbp, -16
	movq	%rsp, %rbp
	.cfi_def_cfa_register %rbp
	subq	$80, %rsp
	movq	%rdi, -56(%rbp)
	movq	%rsi, -64(%rbp)
	movq	-56(%rbp), %rdi
	movq	%rdi, -80(%rbp)                 # 8-byte Spill
	callq	_ZNSt7__cxx1112basic_stringIcSt11char_traitsIcESaIcEE16_M_get_allocatorEv
	movq	-80(%rbp), %rdi                 # 8-byte Reload
	movq	%rax, -72(%rbp)                 # 8-byte Spill
	callq	_ZNKSt7__cxx1112basic_stringIcSt11char_traitsIcESaIcEE7_M_dataEv
	movq	-72(%rbp), %rdx                 # 8-byte Reload
	movq	%rax, %rcx
	movq	-64(%rbp), %rax
	addq	$1, %rax
	movq	%rdx, -32(%rbp)
	movq	%rcx, -40(%rbp)
	movq	%rax, -48(%rbp)
	movq	-32(%rbp), %rdx
	movq	-40(%rbp), %rcx
	movq	-48(%rbp), %rax
	movq	%rdx, -8(%rbp)
	movq	%rcx, -16(%rbp)
	movq	%rax, -24(%rbp)
	movq	-8(%rbp), %rdi
	movq	-16(%rbp), %rsi
	movq	-24(%rbp), %rdx
	callq	_ZNSt15__new_allocatorIcE10deallocateEPcm
# %bb.1:
	jmp	.LBB68_2
.LBB68_2:
	addq	$80, %rsp
	popq	%rbp
	.cfi_def_cfa %rsp, 8
	retq
.Lfunc_end68:
	.size	_ZNSt7__cxx1112basic_stringIcSt11char_traitsIcESaIcEE10_M_destroyEm, .Lfunc_end68-_ZNSt7__cxx1112basic_stringIcSt11char_traitsIcESaIcEE10_M_destroyEm
	.cfi_endproc
                                        # -- End function
	.section	.text._ZNSt15__new_allocatorIcE10deallocateEPcm,"axG",@progbits,_ZNSt15__new_allocatorIcE10deallocateEPcm,comdat
	.weak	_ZNSt15__new_allocatorIcE10deallocateEPcm # -- Begin function _ZNSt15__new_allocatorIcE10deallocateEPcm
	.p2align	4, 0x90
	.type	_ZNSt15__new_allocatorIcE10deallocateEPcm,@function
_ZNSt15__new_allocatorIcE10deallocateEPcm: # @_ZNSt15__new_allocatorIcE10deallocateEPcm
	.cfi_startproc
# %bb.0:
	pushq	%rbp
	.cfi_def_cfa_offset 16
	.cfi_offset %rbp, -16
	movq	%rsp, %rbp
	.cfi_def_cfa_register %rbp
	subq	$32, %rsp
	movq	%rdi, -8(%rbp)
	movq	%rsi, -16(%rbp)
	movq	%rdx, -24(%rbp)
	movq	-16(%rbp), %rdi
	callq	_ZdlPv@PLT
	addq	$32, %rsp
	popq	%rbp
	.cfi_def_cfa %rsp, 8
	retq
.Lfunc_end69:
	.size	_ZNSt15__new_allocatorIcE10deallocateEPcm, .Lfunc_end69-_ZNSt15__new_allocatorIcE10deallocateEPcm
	.cfi_endproc
                                        # -- End function
	.section	.text._ZNSt7__cxx1112basic_stringIcSt11char_traitsIcESaIcEE22__resize_and_overwriteIZNSt8__format9_Seq_sinkIS4_E10_M_reserveEmEUlT_T0_E_EEvmS9_,"axG",@progbits,_ZNSt7__cxx1112basic_stringIcSt11char_traitsIcESaIcEE22__resize_and_overwriteIZNSt8__format9_Seq_sinkIS4_E10_M_reserveEmEUlT_T0_E_EEvmS9_,comdat
	.weak	_ZNSt7__cxx1112basic_stringIcSt11char_traitsIcESaIcEE22__resize_and_overwriteIZNSt8__format9_Seq_sinkIS4_E10_M_reserveEmEUlT_T0_E_EEvmS9_ # -- Begin function _ZNSt7__cxx1112basic_stringIcSt11char_traitsIcESaIcEE22__resize_and_overwriteIZNSt8__format9_Seq_sinkIS4_E10_M_reserveEmEUlT_T0_E_EEvmS9_
	.p2align	4, 0x90
	.type	_ZNSt7__cxx1112basic_stringIcSt11char_traitsIcESaIcEE22__resize_and_overwriteIZNSt8__format9_Seq_sinkIS4_E10_M_reserveEmEUlT_T0_E_EEvmS9_,@function
_ZNSt7__cxx1112basic_stringIcSt11char_traitsIcESaIcEE22__resize_and_overwriteIZNSt8__format9_Seq_sinkIS4_E10_M_reserveEmEUlT_T0_E_EEvmS9_: # @_ZNSt7__cxx1112basic_stringIcSt11char_traitsIcESaIcEE22__resize_and_overwriteIZNSt8__format9_Seq_sinkIS4_E10_M_reserveEmEUlT_T0_E_EEvmS9_
	.cfi_startproc
# %bb.0:
	pushq	%rbp
	.cfi_def_cfa_offset 16
	.cfi_offset %rbp, -16
	movq	%rsp, %rbp
	.cfi_def_cfa_register %rbp
	subq	$32, %rsp
	movq	%rdi, -16(%rbp)
	movq	%rsi, -24(%rbp)
	movq	-16(%rbp), %rdi
	movq	-24(%rbp), %rsi
	leaq	-1(%rbp), %rdx
	callq	_ZNSt7__cxx1112basic_stringIcSt11char_traitsIcESaIcEE20resize_and_overwriteIRZNSt8__format9_Seq_sinkIS4_E10_M_reserveEmEUlT_T0_E_EEvmS9_
	addq	$32, %rsp
	popq	%rbp
	.cfi_def_cfa %rsp, 8
	retq
.Lfunc_end70:
	.size	_ZNSt7__cxx1112basic_stringIcSt11char_traitsIcESaIcEE22__resize_and_overwriteIZNSt8__format9_Seq_sinkIS4_E10_M_reserveEmEUlT_T0_E_EEvmS9_, .Lfunc_end70-_ZNSt7__cxx1112basic_stringIcSt11char_traitsIcESaIcEE22__resize_and_overwriteIZNSt8__format9_Seq_sinkIS4_E10_M_reserveEmEUlT_T0_E_EEvmS9_
	.cfi_endproc
                                        # -- End function
	.section	.text._ZNSt8__format5_SinkIcE8_M_resetESt4spanIcLm18446744073709551615EEm,"axG",@progbits,_ZNSt8__format5_SinkIcE8_M_resetESt4spanIcLm18446744073709551615EEm,comdat
	.weak	_ZNSt8__format5_SinkIcE8_M_resetESt4spanIcLm18446744073709551615EEm # -- Begin function _ZNSt8__format5_SinkIcE8_M_resetESt4spanIcLm18446744073709551615EEm
	.p2align	4, 0x90
	.type	_ZNSt8__format5_SinkIcE8_M_resetESt4spanIcLm18446744073709551615EEm,@function
_ZNSt8__format5_SinkIcE8_M_resetESt4spanIcLm18446744073709551615EEm: # @_ZNSt8__format5_SinkIcE8_M_resetESt4spanIcLm18446744073709551615EEm
	.cfi_startproc
# %bb.0:
	pushq	%rbp
	.cfi_def_cfa_offset 16
	.cfi_offset %rbp, -16
	movq	%rsp, %rbp
	.cfi_def_cfa_register %rbp
	subq	$64, %rsp
	movq	%rsi, -16(%rbp)
	movq	%rdx, -8(%rbp)
	movq	%rdi, -24(%rbp)
	movq	%rcx, -32(%rbp)
	movq	-24(%rbp), %rax
	movq	%rax, -56(%rbp)                 # 8-byte Spill
	movq	-16(%rbp), %rcx
	movq	%rcx, 8(%rax)
	movq	-8(%rbp), %rcx
	movq	%rcx, 16(%rax)
	leaq	-16(%rbp), %rdi
	callq	_ZNKSt4spanIcLm18446744073709551615EE5beginEv
	movq	%rax, -48(%rbp)
	movq	-32(%rbp), %rsi
	leaq	-48(%rbp), %rdi
	callq	_ZNK9__gnu_cxx17__normal_iteratorIPcSt4spanIcLm18446744073709551615EEEplEl
	movq	%rax, %rcx
	movq	-56(%rbp), %rax                 # 8-byte Reload
	movq	%rcx, -40(%rbp)
	movq	-40(%rbp), %rcx
	movq	%rcx, 24(%rax)
	addq	$64, %rsp
	popq	%rbp
	.cfi_def_cfa %rsp, 8
	retq
.Lfunc_end71:
	.size	_ZNSt8__format5_SinkIcE8_M_resetESt4spanIcLm18446744073709551615EEm, .Lfunc_end71-_ZNSt8__format5_SinkIcE8_M_resetESt4spanIcLm18446744073709551615EEm
	.cfi_endproc
                                        # -- End function
	.section	.text._ZNSt4spanIcLm18446744073709551615EEC2IRNSt7__cxx1112basic_stringIcSt11char_traitsIcESaIcEEEQaaaaaaaaaaaantsr8__detailE9__is_spanINSt12remove_cvrefITL0__E4typeEEntsr8__detailE14__is_std_arrayISC_Ent10is_array_vISC_Esr6rangesE16contiguous_rangeISA_Esr6rangesE11sized_rangeISA_Eoosr6rangesE14borrowed_rangeISA_E10is_const_vIT_Esr19__is_compatible_refIDTdeclsr3stdE7declvalIRDTclsr6ranges8__accessE7__beginclsr3stdE7declvalIRSA_EEEEEEEEE5valueEEOSD_,"axG",@progbits,_ZNSt4spanIcLm18446744073709551615EEC2IRNSt7__cxx1112basic_stringIcSt11char_traitsIcESaIcEEEQaaaaaaaaaaaantsr8__detailE9__is_spanINSt12remove_cvrefITL0__E4typeEEntsr8__detailE14__is_std_arrayISC_Ent10is_array_vISC_Esr6rangesE16contiguous_rangeISA_Esr6rangesE11sized_rangeISA_Eoosr6rangesE14borrowed_rangeISA_E10is_const_vIT_Esr19__is_compatible_refIDTdeclsr3stdE7declvalIRDTclsr6ranges8__accessE7__beginclsr3stdE7declvalIRSA_EEEEEEEEE5valueEEOSD_,comdat
	.weak	_ZNSt4spanIcLm18446744073709551615EEC2IRNSt7__cxx1112basic_stringIcSt11char_traitsIcESaIcEEEQaaaaaaaaaaaantsr8__detailE9__is_spanINSt12remove_cvrefITL0__E4typeEEntsr8__detailE14__is_std_arrayISC_Ent10is_array_vISC_Esr6rangesE16contiguous_rangeISA_Esr6rangesE11sized_rangeISA_Eoosr6rangesE14borrowed_rangeISA_E10is_const_vIT_Esr19__is_compatible_refIDTdeclsr3stdE7declvalIRDTclsr6ranges8__accessE7__beginclsr3stdE7declvalIRSA_EEEEEEEEE5valueEEOSD_ # -- Begin function _ZNSt4spanIcLm18446744073709551615EEC2IRNSt7__cxx1112basic_stringIcSt11char_traitsIcESaIcEEEQaaaaaaaaaaaantsr8__detailE9__is_spanINSt12remove_cvrefITL0__E4typeEEntsr8__detailE14__is_std_arrayISC_Ent10is_array_vISC_Esr6rangesE16contiguous_rangeISA_Esr6rangesE11sized_rangeISA_Eoosr6rangesE14borrowed_rangeISA_E10is_const_vIT_Esr19__is_compatible_refIDTdeclsr3stdE7declvalIRDTclsr6ranges8__accessE7__beginclsr3stdE7declvalIRSA_EEEEEEEEE5valueEEOSD_
	.p2align	4, 0x90
	.type	_ZNSt4spanIcLm18446744073709551615EEC2IRNSt7__cxx1112basic_stringIcSt11char_traitsIcESaIcEEEQaaaaaaaaaaaantsr8__detailE9__is_spanINSt12remove_cvrefITL0__E4typeEEntsr8__detailE14__is_std_arrayISC_Ent10is_array_vISC_Esr6rangesE16contiguous_rangeISA_Esr6rangesE11sized_rangeISA_Eoosr6rangesE14borrowed_rangeISA_E10is_const_vIT_Esr19__is_compatible_refIDTdeclsr3stdE7declvalIRDTclsr6ranges8__accessE7__beginclsr3stdE7declvalIRSA_EEEEEEEEE5valueEEOSD_,@function
_ZNSt4spanIcLm18446744073709551615EEC2IRNSt7__cxx1112basic_stringIcSt11char_traitsIcESaIcEEEQaaaaaaaaaaaantsr8__detailE9__is_spanINSt12remove_cvrefITL0__E4typeEEntsr8__detailE14__is_std_arrayISC_Ent10is_array_vISC_Esr6rangesE16contiguous_rangeISA_Esr6rangesE11sized_rangeISA_Eoosr6rangesE14borrowed_rangeISA_E10is_const_vIT_Esr19__is_compatible_refIDTdeclsr3stdE7declvalIRDTclsr6ranges8__accessE7__beginclsr3stdE7declvalIRSA_EEEEEEEEE5valueEEOSD_: # @_ZNSt4spanIcLm18446744073709551615EEC2IRNSt7__cxx1112basic_stringIcSt11char_traitsIcESaIcEEEQaaaaaaaaaaaantsr8__detailE9__is_spanINSt12remove_cvrefITL0__E4typeEEntsr8__detailE14__is_std_arrayISC_Ent10is_array_vISC_Esr6rangesE16contiguous_rangeISA_Esr6rangesE11sized_rangeISA_Eoosr6rangesE14borrowed_rangeISA_E10is_const_vIT_Esr19__is_compatible_refIDTdeclsr3stdE7declvalIRDTclsr6ranges8__accessE7__beginclsr3stdE7declvalIRSA_EEEEEEEEE5valueEEOSD_
	.cfi_startproc
# %bb.0:
	pushq	%rbp
	.cfi_def_cfa_offset 16
	.cfi_offset %rbp, -16
	movq	%rsp, %rbp
	.cfi_def_cfa_register %rbp
	subq	$32, %rsp
	movq	%rdi, -8(%rbp)
	movq	%rsi, -16(%rbp)
	movq	-8(%rbp), %rax
	movq	%rax, -32(%rbp)                 # 8-byte Spill
	movq	-16(%rbp), %rsi
	leaq	_ZNSt6ranges4_Cpo4dataE(%rip), %rdi
	callq	_ZNKSt6ranges8__access5_DataclITkNS_8__detail22__maybe_borrowed_rangeERNSt7__cxx1112basic_stringIcSt11char_traitsIcESaIcEEEQoo13__member_dataIT_E12__begin_dataISB_EEEDaOSB_
	movq	%rax, -24(%rbp)                 # 8-byte Spill
	movq	-16(%rbp), %rsi
	leaq	_ZNSt6ranges4_Cpo4sizeE(%rip), %rdi
	callq	_ZNKSt6ranges8__access5_SizeclIRNSt7__cxx1112basic_stringIcSt11char_traitsIcESaIcEEEQoooooo18is_bounded_array_vINSt16remove_referenceIT_E4typeEE13__member_sizeISB_E10__adl_sizeISB_E15__sentinel_sizeISB_EEEDaOSB_
	movq	-32(%rbp), %rdi                 # 8-byte Reload
	movq	-24(%rbp), %rsi                 # 8-byte Reload
	movq	%rax, %rdx
	callq	_ZNSt4spanIcLm18446744073709551615EEC2ITkSt19contiguous_iteratorPcQsr19__is_compatible_refIDTdeclsr3stdE7declvalIRTL0__EEEEE5valueEET_m
	addq	$32, %rsp
	popq	%rbp
	.cfi_def_cfa %rsp, 8
	retq
.Lfunc_end72:
	.size	_ZNSt4spanIcLm18446744073709551615EEC2IRNSt7__cxx1112basic_stringIcSt11char_traitsIcESaIcEEEQaaaaaaaaaaaantsr8__detailE9__is_spanINSt12remove_cvrefITL0__E4typeEEntsr8__detailE14__is_std_arrayISC_Ent10is_array_vISC_Esr6rangesE16contiguous_rangeISA_Esr6rangesE11sized_rangeISA_Eoosr6rangesE14borrowed_rangeISA_E10is_const_vIT_Esr19__is_compatible_refIDTdeclsr3stdE7declvalIRDTclsr6ranges8__accessE7__beginclsr3stdE7declvalIRSA_EEEEEEEEE5valueEEOSD_, .Lfunc_end72-_ZNSt4spanIcLm18446744073709551615EEC2IRNSt7__cxx1112basic_stringIcSt11char_traitsIcESaIcEEEQaaaaaaaaaaaantsr8__detailE9__is_spanINSt12remove_cvrefITL0__E4typeEEntsr8__detailE14__is_std_arrayISC_Ent10is_array_vISC_Esr6rangesE16contiguous_rangeISA_Esr6rangesE11sized_rangeISA_Eoosr6rangesE14borrowed_rangeISA_E10is_const_vIT_Esr19__is_compatible_refIDTdeclsr3stdE7declvalIRDTclsr6ranges8__accessE7__beginclsr3stdE7declvalIRSA_EEEEEEEEE5valueEEOSD_
	.cfi_endproc
                                        # -- End function
	.section	.text._ZNSt7__cxx1112basic_stringIcSt11char_traitsIcESaIcEE20resize_and_overwriteIRZNSt8__format9_Seq_sinkIS4_E10_M_reserveEmEUlT_T0_E_EEvmS9_,"axG",@progbits,_ZNSt7__cxx1112basic_stringIcSt11char_traitsIcESaIcEE20resize_and_overwriteIRZNSt8__format9_Seq_sinkIS4_E10_M_reserveEmEUlT_T0_E_EEvmS9_,comdat
	.weak	_ZNSt7__cxx1112basic_stringIcSt11char_traitsIcESaIcEE20resize_and_overwriteIRZNSt8__format9_Seq_sinkIS4_E10_M_reserveEmEUlT_T0_E_EEvmS9_ # -- Begin function _ZNSt7__cxx1112basic_stringIcSt11char_traitsIcESaIcEE20resize_and_overwriteIRZNSt8__format9_Seq_sinkIS4_E10_M_reserveEmEUlT_T0_E_EEvmS9_
	.p2align	4, 0x90
	.type	_ZNSt7__cxx1112basic_stringIcSt11char_traitsIcESaIcEE20resize_and_overwriteIRZNSt8__format9_Seq_sinkIS4_E10_M_reserveEmEUlT_T0_E_EEvmS9_,@function
_ZNSt7__cxx1112basic_stringIcSt11char_traitsIcESaIcEE20resize_and_overwriteIRZNSt8__format9_Seq_sinkIS4_E10_M_reserveEmEUlT_T0_E_EEvmS9_: # @_ZNSt7__cxx1112basic_stringIcSt11char_traitsIcESaIcEE20resize_and_overwriteIRZNSt8__format9_Seq_sinkIS4_E10_M_reserveEmEUlT_T0_E_EEvmS9_
.Lfunc_begin10:
	.cfi_startproc
	.cfi_personality 155, DW.ref.__gxx_personality_v0
	.cfi_lsda 27, .Lexception10
# %bb.0:
	pushq	%rbp
	.cfi_def_cfa_offset 16
	.cfi_offset %rbp, -16
	movq	%rsp, %rbp
	.cfi_def_cfa_register %rbp
	subq	$96, %rsp
	movq	%rdi, -8(%rbp)
	movq	%rsi, -16(%rbp)
	movq	%rdx, -24(%rbp)
	movq	-8(%rbp), %rdi
	movq	%rdi, -88(%rbp)                 # 8-byte Spill
	movq	-16(%rbp), %rsi
	callq	_ZNSt7__cxx1112basic_stringIcSt11char_traitsIcESaIcEE7reserveEm
	movq	-88(%rbp), %rdi                 # 8-byte Reload
	callq	_ZNKSt7__cxx1112basic_stringIcSt11char_traitsIcESaIcEE7_M_dataEv
	movq	%rax, %rcx
	movq	-88(%rbp), %rax                 # 8-byte Reload
	movq	%rcx, -32(%rbp)
	movq	%rax, -48(%rbp)
	movq	$0, -40(%rbp)
	movq	-24(%rbp), %rdi
	movq	-32(%rbp), %rsi
	movq	-16(%rbp), %rdx
.Ltmp40:
	callq	_ZZNSt8__format9_Seq_sinkINSt7__cxx1112basic_stringIcSt11char_traitsIcESaIcEEEE10_M_reserveEmENKUlT_T0_E_clIPcmEEDaS8_S9_
.Ltmp41:
	movq	%rax, -80(%rbp)                 # 8-byte Spill
	jmp	.LBB73_1
.LBB73_1:
	movq	-80(%rbp), %rax                 # 8-byte Reload
	movq	%rax, -56(%rbp)
	movq	-56(%rbp), %rax
	movq	%rax, -40(%rbp)
	movq	-40(%rbp), %rax
	cmpq	-16(%rbp), %rax
	jbe	.LBB73_4
# %bb.2:
.LBB73_3:
.Ltmp42:
	movq	%rax, %rcx
	movl	%edx, %eax
	movq	%rcx, -64(%rbp)
	movl	%eax, -68(%rbp)
	leaq	-48(%rbp), %rdi
	callq	_ZZNSt7__cxx1112basic_stringIcSt11char_traitsIcESaIcEE20resize_and_overwriteIRZNSt8__format9_Seq_sinkIS4_E10_M_reserveEmEUlT_T0_E_EEvmS9_EN11_TerminatorD2Ev
	jmp	.LBB73_5
.LBB73_4:
	leaq	-48(%rbp), %rdi
	callq	_ZZNSt7__cxx1112basic_stringIcSt11char_traitsIcESaIcEE20resize_and_overwriteIRZNSt8__format9_Seq_sinkIS4_E10_M_reserveEmEUlT_T0_E_EEvmS9_EN11_TerminatorD2Ev
	addq	$96, %rsp
	popq	%rbp
	.cfi_def_cfa %rsp, 8
	retq
.LBB73_5:
	.cfi_def_cfa %rbp, 16
	movq	-64(%rbp), %rdi
	callq	_Unwind_Resume@PLT
.Lfunc_end73:
	.size	_ZNSt7__cxx1112basic_stringIcSt11char_traitsIcESaIcEE20resize_and_overwriteIRZNSt8__format9_Seq_sinkIS4_E10_M_reserveEmEUlT_T0_E_EEvmS9_, .Lfunc_end73-_ZNSt7__cxx1112basic_stringIcSt11char_traitsIcESaIcEE20resize_and_overwriteIRZNSt8__format9_Seq_sinkIS4_E10_M_reserveEmEUlT_T0_E_EEvmS9_
	.cfi_endproc
	.section	.gcc_except_table._ZNSt7__cxx1112basic_stringIcSt11char_traitsIcESaIcEE20resize_and_overwriteIRZNSt8__format9_Seq_sinkIS4_E10_M_reserveEmEUlT_T0_E_EEvmS9_,"aG",@progbits,_ZNSt7__cxx1112basic_stringIcSt11char_traitsIcESaIcEE20resize_and_overwriteIRZNSt8__format9_Seq_sinkIS4_E10_M_reserveEmEUlT_T0_E_EEvmS9_,comdat
	.p2align	2, 0x0
GCC_except_table73:
.Lexception10:
	.byte	255                             # @LPStart Encoding = omit
	.byte	255                             # @TType Encoding = omit
	.byte	1                               # Call site Encoding = uleb128
	.uleb128 .Lcst_end10-.Lcst_begin10
.Lcst_begin10:
	.uleb128 .Lfunc_begin10-.Lfunc_begin10  # >> Call Site 1 <<
	.uleb128 .Ltmp40-.Lfunc_begin10         #   Call between .Lfunc_begin10 and .Ltmp40
	.byte	0                               #     has no landing pad
	.byte	0                               #   On action: cleanup
	.uleb128 .Ltmp40-.Lfunc_begin10         # >> Call Site 2 <<
	.uleb128 .Ltmp41-.Ltmp40                #   Call between .Ltmp40 and .Ltmp41
	.uleb128 .Ltmp42-.Lfunc_begin10         #     jumps to .Ltmp42
	.byte	0                               #   On action: cleanup
	.uleb128 .Ltmp41-.Lfunc_begin10         # >> Call Site 3 <<
	.uleb128 .Lfunc_end73-.Ltmp41           #   Call between .Ltmp41 and .Lfunc_end73
	.byte	0                               #     has no landing pad
	.byte	0                               #   On action: cleanup
.Lcst_end10:
	.p2align	2, 0x0
                                        # -- End function
	.section	.text._ZNSt7__cxx1112basic_stringIcSt11char_traitsIcESaIcEE7reserveEm,"axG",@progbits,_ZNSt7__cxx1112basic_stringIcSt11char_traitsIcESaIcEE7reserveEm,comdat
	.weak	_ZNSt7__cxx1112basic_stringIcSt11char_traitsIcESaIcEE7reserveEm # -- Begin function _ZNSt7__cxx1112basic_stringIcSt11char_traitsIcESaIcEE7reserveEm
	.p2align	4, 0x90
	.type	_ZNSt7__cxx1112basic_stringIcSt11char_traitsIcESaIcEE7reserveEm,@function
_ZNSt7__cxx1112basic_stringIcSt11char_traitsIcESaIcEE7reserveEm: # @_ZNSt7__cxx1112basic_stringIcSt11char_traitsIcESaIcEE7reserveEm
	.cfi_startproc
# %bb.0:
	pushq	%rbp
	.cfi_def_cfa_offset 16
	.cfi_offset %rbp, -16
	movq	%rsp, %rbp
	.cfi_def_cfa_register %rbp
	subq	$64, %rsp
	movq	%rdi, -8(%rbp)
	movq	%rsi, -16(%rbp)
	movq	-8(%rbp), %rdi
	movq	%rdi, -40(%rbp)                 # 8-byte Spill
	callq	_ZNKSt7__cxx1112basic_stringIcSt11char_traitsIcESaIcEE8capacityEv
	movq	%rax, -24(%rbp)
	movq	-16(%rbp), %rax
	cmpq	-24(%rbp), %rax
	ja	.LBB74_2
# %bb.1:
	jmp	.LBB74_3
.LBB74_2:
	movq	-40(%rbp), %rdi                 # 8-byte Reload
	movq	-24(%rbp), %rdx
	leaq	-16(%rbp), %rsi
	callq	_ZNSt7__cxx1112basic_stringIcSt11char_traitsIcESaIcEE9_M_createERmm
	movq	-40(%rbp), %rdi                 # 8-byte Reload
	movq	%rax, -32(%rbp)
	movq	-32(%rbp), %rax
	movq	%rax, -56(%rbp)                 # 8-byte Spill
	callq	_ZNKSt7__cxx1112basic_stringIcSt11char_traitsIcESaIcEE7_M_dataEv
	movq	-40(%rbp), %rdi                 # 8-byte Reload
	movq	%rax, -48(%rbp)                 # 8-byte Spill
	callq	_ZNKSt7__cxx1112basic_stringIcSt11char_traitsIcESaIcEE6lengthEv
	movq	-56(%rbp), %rdi                 # 8-byte Reload
	movq	-48(%rbp), %rsi                 # 8-byte Reload
	movq	%rax, %rdx
	addq	$1, %rdx
	callq	_ZNSt7__cxx1112basic_stringIcSt11char_traitsIcESaIcEE7_S_copyEPcPKcm
	movq	-40(%rbp), %rdi                 # 8-byte Reload
	callq	_ZNSt7__cxx1112basic_stringIcSt11char_traitsIcESaIcEE10_M_disposeEv
	movq	-40(%rbp), %rdi                 # 8-byte Reload
	movq	-32(%rbp), %rsi
	callq	_ZNSt7__cxx1112basic_stringIcSt11char_traitsIcESaIcEE7_M_dataEPc
	movq	-40(%rbp), %rdi                 # 8-byte Reload
	movq	-16(%rbp), %rsi
	callq	_ZNSt7__cxx1112basic_stringIcSt11char_traitsIcESaIcEE11_M_capacityEm
.LBB74_3:
	addq	$64, %rsp
	popq	%rbp
	.cfi_def_cfa %rsp, 8
	retq
.Lfunc_end74:
	.size	_ZNSt7__cxx1112basic_stringIcSt11char_traitsIcESaIcEE7reserveEm, .Lfunc_end74-_ZNSt7__cxx1112basic_stringIcSt11char_traitsIcESaIcEE7reserveEm
	.cfi_endproc
                                        # -- End function
	.section	.text._ZZNSt8__format9_Seq_sinkINSt7__cxx1112basic_stringIcSt11char_traitsIcESaIcEEEE10_M_reserveEmENKUlT_T0_E_clIPcmEEDaS8_S9_,"axG",@progbits,_ZZNSt8__format9_Seq_sinkINSt7__cxx1112basic_stringIcSt11char_traitsIcESaIcEEEE10_M_reserveEmENKUlT_T0_E_clIPcmEEDaS8_S9_,comdat
	.weak	_ZZNSt8__format9_Seq_sinkINSt7__cxx1112basic_stringIcSt11char_traitsIcESaIcEEEE10_M_reserveEmENKUlT_T0_E_clIPcmEEDaS8_S9_ # -- Begin function _ZZNSt8__format9_Seq_sinkINSt7__cxx1112basic_stringIcSt11char_traitsIcESaIcEEEE10_M_reserveEmENKUlT_T0_E_clIPcmEEDaS8_S9_
	.p2align	4, 0x90
	.type	_ZZNSt8__format9_Seq_sinkINSt7__cxx1112basic_stringIcSt11char_traitsIcESaIcEEEE10_M_reserveEmENKUlT_T0_E_clIPcmEEDaS8_S9_,@function
_ZZNSt8__format9_Seq_sinkINSt7__cxx1112basic_stringIcSt11char_traitsIcESaIcEEEE10_M_reserveEmENKUlT_T0_E_clIPcmEEDaS8_S9_: # @_ZZNSt8__format9_Seq_sinkINSt7__cxx1112basic_stringIcSt11char_traitsIcESaIcEEEE10_M_reserveEmENKUlT_T0_E_clIPcmEEDaS8_S9_
	.cfi_startproc
# %bb.0:
	pushq	%rbp
	.cfi_def_cfa_offset 16
	.cfi_offset %rbp, -16
	movq	%rsp, %rbp
	.cfi_def_cfa_register %rbp
	movq	%rdi, -8(%rbp)
	movq	%rsi, -16(%rbp)
	movq	%rdx, -24(%rbp)
	movq	-24(%rbp), %rax
	popq	%rbp
	.cfi_def_cfa %rsp, 8
	retq
.Lfunc_end75:
	.size	_ZZNSt8__format9_Seq_sinkINSt7__cxx1112basic_stringIcSt11char_traitsIcESaIcEEEE10_M_reserveEmENKUlT_T0_E_clIPcmEEDaS8_S9_, .Lfunc_end75-_ZZNSt8__format9_Seq_sinkINSt7__cxx1112basic_stringIcSt11char_traitsIcESaIcEEEE10_M_reserveEmENKUlT_T0_E_clIPcmEEDaS8_S9_
	.cfi_endproc
                                        # -- End function
	.section	.text._ZZNSt7__cxx1112basic_stringIcSt11char_traitsIcESaIcEE20resize_and_overwriteIRZNSt8__format9_Seq_sinkIS4_E10_M_reserveEmEUlT_T0_E_EEvmS9_EN11_TerminatorD2Ev,"axG",@progbits,_ZZNSt7__cxx1112basic_stringIcSt11char_traitsIcESaIcEE20resize_and_overwriteIRZNSt8__format9_Seq_sinkIS4_E10_M_reserveEmEUlT_T0_E_EEvmS9_EN11_TerminatorD2Ev,comdat
	.weak	_ZZNSt7__cxx1112basic_stringIcSt11char_traitsIcESaIcEE20resize_and_overwriteIRZNSt8__format9_Seq_sinkIS4_E10_M_reserveEmEUlT_T0_E_EEvmS9_EN11_TerminatorD2Ev # -- Begin function _ZZNSt7__cxx1112basic_stringIcSt11char_traitsIcESaIcEE20resize_and_overwriteIRZNSt8__format9_Seq_sinkIS4_E10_M_reserveEmEUlT_T0_E_EEvmS9_EN11_TerminatorD2Ev
	.p2align	4, 0x90
	.type	_ZZNSt7__cxx1112basic_stringIcSt11char_traitsIcESaIcEE20resize_and_overwriteIRZNSt8__format9_Seq_sinkIS4_E10_M_reserveEmEUlT_T0_E_EEvmS9_EN11_TerminatorD2Ev,@function
_ZZNSt7__cxx1112basic_stringIcSt11char_traitsIcESaIcEE20resize_and_overwriteIRZNSt8__format9_Seq_sinkIS4_E10_M_reserveEmEUlT_T0_E_EEvmS9_EN11_TerminatorD2Ev: # @_ZZNSt7__cxx1112basic_stringIcSt11char_traitsIcESaIcEE20resize_and_overwriteIRZNSt8__format9_Seq_sinkIS4_E10_M_reserveEmEUlT_T0_E_EEvmS9_EN11_TerminatorD2Ev
.Lfunc_begin11:
	.cfi_startproc
	.cfi_personality 155, DW.ref.__gxx_personality_v0
	.cfi_lsda 27, .Lexception11
# %bb.0:
	pushq	%rbp
	.cfi_def_cfa_offset 16
	.cfi_offset %rbp, -16
	movq	%rsp, %rbp
	.cfi_def_cfa_register %rbp
	subq	$16, %rsp
	movq	%rdi, -8(%rbp)
	movq	-8(%rbp), %rax
	movq	(%rax), %rdi
	movq	8(%rax), %rsi
.Ltmp43:
	callq	_ZNSt7__cxx1112basic_stringIcSt11char_traitsIcESaIcEE13_M_set_lengthEm
.Ltmp44:
	jmp	.LBB76_1
.LBB76_1:
	addq	$16, %rsp
	popq	%rbp
	.cfi_def_cfa %rsp, 8
	retq
.LBB76_2:
	.cfi_def_cfa %rbp, 16
.Ltmp45:
	movq	%rax, %rdi
                                        # kill: def $eax killed $edx killed $rdx
	callq	__clang_call_terminate
.Lfunc_end76:
	.size	_ZZNSt7__cxx1112basic_stringIcSt11char_traitsIcESaIcEE20resize_and_overwriteIRZNSt8__format9_Seq_sinkIS4_E10_M_reserveEmEUlT_T0_E_EEvmS9_EN11_TerminatorD2Ev, .Lfunc_end76-_ZZNSt7__cxx1112basic_stringIcSt11char_traitsIcESaIcEE20resize_and_overwriteIRZNSt8__format9_Seq_sinkIS4_E10_M_reserveEmEUlT_T0_E_EEvmS9_EN11_TerminatorD2Ev
	.cfi_endproc
	.section	.gcc_except_table._ZZNSt7__cxx1112basic_stringIcSt11char_traitsIcESaIcEE20resize_and_overwriteIRZNSt8__format9_Seq_sinkIS4_E10_M_reserveEmEUlT_T0_E_EEvmS9_EN11_TerminatorD2Ev,"aG",@progbits,_ZZNSt7__cxx1112basic_stringIcSt11char_traitsIcESaIcEE20resize_and_overwriteIRZNSt8__format9_Seq_sinkIS4_E10_M_reserveEmEUlT_T0_E_EEvmS9_EN11_TerminatorD2Ev,comdat
	.p2align	2, 0x0
GCC_except_table76:
.Lexception11:
	.byte	255                             # @LPStart Encoding = omit
	.byte	155                             # @TType Encoding = indirect pcrel sdata4
	.uleb128 .Lttbase8-.Lttbaseref8
.Lttbaseref8:
	.byte	1                               # Call site Encoding = uleb128
	.uleb128 .Lcst_end11-.Lcst_begin11
.Lcst_begin11:
	.uleb128 .Ltmp43-.Lfunc_begin11         # >> Call Site 1 <<
	.uleb128 .Ltmp44-.Ltmp43                #   Call between .Ltmp43 and .Ltmp44
	.uleb128 .Ltmp45-.Lfunc_begin11         #     jumps to .Ltmp45
	.byte	1                               #   On action: 1
.Lcst_end11:
	.byte	1                               # >> Action Record 1 <<
                                        #   Catch TypeInfo 1
	.byte	0                               #   No further actions
	.p2align	2, 0x0
                                        # >> Catch TypeInfos <<
	.long	0                               # TypeInfo 1
.Lttbase8:
	.p2align	2, 0x0
                                        # -- End function
	.section	.text._ZNK9__gnu_cxx17__normal_iteratorIPcSt4spanIcLm18446744073709551615EEEplEl,"axG",@progbits,_ZNK9__gnu_cxx17__normal_iteratorIPcSt4spanIcLm18446744073709551615EEEplEl,comdat
	.weak	_ZNK9__gnu_cxx17__normal_iteratorIPcSt4spanIcLm18446744073709551615EEEplEl # -- Begin function _ZNK9__gnu_cxx17__normal_iteratorIPcSt4spanIcLm18446744073709551615EEEplEl
	.p2align	4, 0x90
	.type	_ZNK9__gnu_cxx17__normal_iteratorIPcSt4spanIcLm18446744073709551615EEEplEl,@function
_ZNK9__gnu_cxx17__normal_iteratorIPcSt4spanIcLm18446744073709551615EEEplEl: # @_ZNK9__gnu_cxx17__normal_iteratorIPcSt4spanIcLm18446744073709551615EEEplEl
	.cfi_startproc
# %bb.0:
	pushq	%rbp
	.cfi_def_cfa_offset 16
	.cfi_offset %rbp, -16
	movq	%rsp, %rbp
	.cfi_def_cfa_register %rbp
	subq	$32, %rsp
	movq	%rdi, -16(%rbp)
	movq	%rsi, -24(%rbp)
	movq	-16(%rbp), %rax
	movq	(%rax), %rax
	addq	-24(%rbp), %rax
	movq	%rax, -32(%rbp)
	leaq	-8(%rbp), %rdi
	leaq	-32(%rbp), %rsi
	callq	_ZN9__gnu_cxx17__normal_iteratorIPcSt4spanIcLm18446744073709551615EEEC2ERKS1_
	movq	-8(%rbp), %rax
	addq	$32, %rsp
	popq	%rbp
	.cfi_def_cfa %rsp, 8
	retq
.Lfunc_end77:
	.size	_ZNK9__gnu_cxx17__normal_iteratorIPcSt4spanIcLm18446744073709551615EEEplEl, .Lfunc_end77-_ZNK9__gnu_cxx17__normal_iteratorIPcSt4spanIcLm18446744073709551615EEEplEl
	.cfi_endproc
                                        # -- End function
	.section	.text._ZNKSt6ranges8__access5_DataclITkNS_8__detail22__maybe_borrowed_rangeERNSt7__cxx1112basic_stringIcSt11char_traitsIcESaIcEEEQoo13__member_dataIT_E12__begin_dataISB_EEEDaOSB_,"axG",@progbits,_ZNKSt6ranges8__access5_DataclITkNS_8__detail22__maybe_borrowed_rangeERNSt7__cxx1112basic_stringIcSt11char_traitsIcESaIcEEEQoo13__member_dataIT_E12__begin_dataISB_EEEDaOSB_,comdat
	.weak	_ZNKSt6ranges8__access5_DataclITkNS_8__detail22__maybe_borrowed_rangeERNSt7__cxx1112basic_stringIcSt11char_traitsIcESaIcEEEQoo13__member_dataIT_E12__begin_dataISB_EEEDaOSB_ # -- Begin function _ZNKSt6ranges8__access5_DataclITkNS_8__detail22__maybe_borrowed_rangeERNSt7__cxx1112basic_stringIcSt11char_traitsIcESaIcEEEQoo13__member_dataIT_E12__begin_dataISB_EEEDaOSB_
	.p2align	4, 0x90
	.type	_ZNKSt6ranges8__access5_DataclITkNS_8__detail22__maybe_borrowed_rangeERNSt7__cxx1112basic_stringIcSt11char_traitsIcESaIcEEEQoo13__member_dataIT_E12__begin_dataISB_EEEDaOSB_,@function
_ZNKSt6ranges8__access5_DataclITkNS_8__detail22__maybe_borrowed_rangeERNSt7__cxx1112basic_stringIcSt11char_traitsIcESaIcEEEQoo13__member_dataIT_E12__begin_dataISB_EEEDaOSB_: # @_ZNKSt6ranges8__access5_DataclITkNS_8__detail22__maybe_borrowed_rangeERNSt7__cxx1112basic_stringIcSt11char_traitsIcESaIcEEEQoo13__member_dataIT_E12__begin_dataISB_EEEDaOSB_
	.cfi_startproc
# %bb.0:
	pushq	%rbp
	.cfi_def_cfa_offset 16
	.cfi_offset %rbp, -16
	movq	%rsp, %rbp
	.cfi_def_cfa_register %rbp
	subq	$16, %rsp
	movq	%rdi, -8(%rbp)
	movq	%rsi, -16(%rbp)
	movq	-16(%rbp), %rdi
	callq	_ZNSt7__cxx1112basic_stringIcSt11char_traitsIcESaIcEE4dataEv
	addq	$16, %rsp
	popq	%rbp
	.cfi_def_cfa %rsp, 8
	retq
.Lfunc_end78:
	.size	_ZNKSt6ranges8__access5_DataclITkNS_8__detail22__maybe_borrowed_rangeERNSt7__cxx1112basic_stringIcSt11char_traitsIcESaIcEEEQoo13__member_dataIT_E12__begin_dataISB_EEEDaOSB_, .Lfunc_end78-_ZNKSt6ranges8__access5_DataclITkNS_8__detail22__maybe_borrowed_rangeERNSt7__cxx1112basic_stringIcSt11char_traitsIcESaIcEEEQoo13__member_dataIT_E12__begin_dataISB_EEEDaOSB_
	.cfi_endproc
                                        # -- End function
	.section	.text._ZNKSt6ranges8__access5_SizeclIRNSt7__cxx1112basic_stringIcSt11char_traitsIcESaIcEEEQoooooo18is_bounded_array_vINSt16remove_referenceIT_E4typeEE13__member_sizeISB_E10__adl_sizeISB_E15__sentinel_sizeISB_EEEDaOSB_,"axG",@progbits,_ZNKSt6ranges8__access5_SizeclIRNSt7__cxx1112basic_stringIcSt11char_traitsIcESaIcEEEQoooooo18is_bounded_array_vINSt16remove_referenceIT_E4typeEE13__member_sizeISB_E10__adl_sizeISB_E15__sentinel_sizeISB_EEEDaOSB_,comdat
	.weak	_ZNKSt6ranges8__access5_SizeclIRNSt7__cxx1112basic_stringIcSt11char_traitsIcESaIcEEEQoooooo18is_bounded_array_vINSt16remove_referenceIT_E4typeEE13__member_sizeISB_E10__adl_sizeISB_E15__sentinel_sizeISB_EEEDaOSB_ # -- Begin function _ZNKSt6ranges8__access5_SizeclIRNSt7__cxx1112basic_stringIcSt11char_traitsIcESaIcEEEQoooooo18is_bounded_array_vINSt16remove_referenceIT_E4typeEE13__member_sizeISB_E10__adl_sizeISB_E15__sentinel_sizeISB_EEEDaOSB_
	.p2align	4, 0x90
	.type	_ZNKSt6ranges8__access5_SizeclIRNSt7__cxx1112basic_stringIcSt11char_traitsIcESaIcEEEQoooooo18is_bounded_array_vINSt16remove_referenceIT_E4typeEE13__member_sizeISB_E10__adl_sizeISB_E15__sentinel_sizeISB_EEEDaOSB_,@function
_ZNKSt6ranges8__access5_SizeclIRNSt7__cxx1112basic_stringIcSt11char_traitsIcESaIcEEEQoooooo18is_bounded_array_vINSt16remove_referenceIT_E4typeEE13__member_sizeISB_E10__adl_sizeISB_E15__sentinel_sizeISB_EEEDaOSB_: # @_ZNKSt6ranges8__access5_SizeclIRNSt7__cxx1112basic_stringIcSt11char_traitsIcESaIcEEEQoooooo18is_bounded_array_vINSt16remove_referenceIT_E4typeEE13__member_sizeISB_E10__adl_sizeISB_E15__sentinel_sizeISB_EEEDaOSB_
	.cfi_startproc
# %bb.0:
	pushq	%rbp
	.cfi_def_cfa_offset 16
	.cfi_offset %rbp, -16
	movq	%rsp, %rbp
	.cfi_def_cfa_register %rbp
	subq	$16, %rsp
	movq	%rdi, -8(%rbp)
	movq	%rsi, -16(%rbp)
	movq	-16(%rbp), %rdi
	callq	_ZNKSt7__cxx1112basic_stringIcSt11char_traitsIcESaIcEE4sizeEv
	addq	$16, %rsp
	popq	%rbp
	.cfi_def_cfa %rsp, 8
	retq
.Lfunc_end79:
	.size	_ZNKSt6ranges8__access5_SizeclIRNSt7__cxx1112basic_stringIcSt11char_traitsIcESaIcEEEQoooooo18is_bounded_array_vINSt16remove_referenceIT_E4typeEE13__member_sizeISB_E10__adl_sizeISB_E15__sentinel_sizeISB_EEEDaOSB_, .Lfunc_end79-_ZNKSt6ranges8__access5_SizeclIRNSt7__cxx1112basic_stringIcSt11char_traitsIcESaIcEEEQoooooo18is_bounded_array_vINSt16remove_referenceIT_E4typeEE13__member_sizeISB_E10__adl_sizeISB_E15__sentinel_sizeISB_EEEDaOSB_
	.cfi_endproc
                                        # -- End function
	.section	.text._ZNSt7__cxx1112basic_stringIcSt11char_traitsIcESaIcEE6resizeEm,"axG",@progbits,_ZNSt7__cxx1112basic_stringIcSt11char_traitsIcESaIcEE6resizeEm,comdat
	.weak	_ZNSt7__cxx1112basic_stringIcSt11char_traitsIcESaIcEE6resizeEm # -- Begin function _ZNSt7__cxx1112basic_stringIcSt11char_traitsIcESaIcEE6resizeEm
	.p2align	4, 0x90
	.type	_ZNSt7__cxx1112basic_stringIcSt11char_traitsIcESaIcEE6resizeEm,@function
_ZNSt7__cxx1112basic_stringIcSt11char_traitsIcESaIcEE6resizeEm: # @_ZNSt7__cxx1112basic_stringIcSt11char_traitsIcESaIcEE6resizeEm
	.cfi_startproc
# %bb.0:
	pushq	%rbp
	.cfi_def_cfa_offset 16
	.cfi_offset %rbp, -16
	movq	%rsp, %rbp
	.cfi_def_cfa_register %rbp
	subq	$16, %rsp
	movq	%rdi, -8(%rbp)
	movq	%rsi, -16(%rbp)
	movq	-8(%rbp), %rdi
	movq	-16(%rbp), %rsi
	xorl	%edx, %edx
	callq	_ZNSt7__cxx1112basic_stringIcSt11char_traitsIcESaIcEE6resizeEmc
	addq	$16, %rsp
	popq	%rbp
	.cfi_def_cfa %rsp, 8
	retq
.Lfunc_end80:
	.size	_ZNSt7__cxx1112basic_stringIcSt11char_traitsIcESaIcEE6resizeEm, .Lfunc_end80-_ZNSt7__cxx1112basic_stringIcSt11char_traitsIcESaIcEE6resizeEm
	.cfi_endproc
                                        # -- End function
	.section	.text._ZNSt7__cxx1112basic_stringIcSt11char_traitsIcESaIcEE6resizeEmc,"axG",@progbits,_ZNSt7__cxx1112basic_stringIcSt11char_traitsIcESaIcEE6resizeEmc,comdat
	.weak	_ZNSt7__cxx1112basic_stringIcSt11char_traitsIcESaIcEE6resizeEmc # -- Begin function _ZNSt7__cxx1112basic_stringIcSt11char_traitsIcESaIcEE6resizeEmc
	.p2align	4, 0x90
	.type	_ZNSt7__cxx1112basic_stringIcSt11char_traitsIcESaIcEE6resizeEmc,@function
_ZNSt7__cxx1112basic_stringIcSt11char_traitsIcESaIcEE6resizeEmc: # @_ZNSt7__cxx1112basic_stringIcSt11char_traitsIcESaIcEE6resizeEmc
	.cfi_startproc
# %bb.0:
	pushq	%rbp
	.cfi_def_cfa_offset 16
	.cfi_offset %rbp, -16
	movq	%rsp, %rbp
	.cfi_def_cfa_register %rbp
	subq	$48, %rsp
	movb	%dl, %al
	movq	%rdi, -8(%rbp)
	movq	%rsi, -16(%rbp)
	movb	%al, -17(%rbp)
	movq	-8(%rbp), %rdi
	movq	%rdi, -40(%rbp)                 # 8-byte Spill
	callq	_ZNKSt7__cxx1112basic_stringIcSt11char_traitsIcESaIcEE4sizeEv
	movq	%rax, -32(%rbp)
	movq	-32(%rbp), %rax
	cmpq	-16(%rbp), %rax
	jae	.LBB81_2
# %bb.1:
	movq	-40(%rbp), %rdi                 # 8-byte Reload
	movq	-16(%rbp), %rsi
	subq	-32(%rbp), %rsi
	movsbl	-17(%rbp), %edx
	callq	_ZNSt7__cxx1112basic_stringIcSt11char_traitsIcESaIcEE6appendEmc
	jmp	.LBB81_5
.LBB81_2:
	movq	-16(%rbp), %rax
	cmpq	-32(%rbp), %rax
	jae	.LBB81_4
# %bb.3:
	movq	-40(%rbp), %rdi                 # 8-byte Reload
	movq	-16(%rbp), %rsi
	callq	_ZNSt7__cxx1112basic_stringIcSt11char_traitsIcESaIcEE13_M_set_lengthEm
.LBB81_4:
	jmp	.LBB81_5
.LBB81_5:
	addq	$48, %rsp
	popq	%rbp
	.cfi_def_cfa %rsp, 8
	retq
.Lfunc_end81:
	.size	_ZNSt7__cxx1112basic_stringIcSt11char_traitsIcESaIcEE6resizeEmc, .Lfunc_end81-_ZNSt7__cxx1112basic_stringIcSt11char_traitsIcESaIcEE6resizeEmc
	.cfi_endproc
                                        # -- End function
	.section	.text._ZNSt7__cxx1112basic_stringIcSt11char_traitsIcESaIcEE6appendEmc,"axG",@progbits,_ZNSt7__cxx1112basic_stringIcSt11char_traitsIcESaIcEE6appendEmc,comdat
	.weak	_ZNSt7__cxx1112basic_stringIcSt11char_traitsIcESaIcEE6appendEmc # -- Begin function _ZNSt7__cxx1112basic_stringIcSt11char_traitsIcESaIcEE6appendEmc
	.p2align	4, 0x90
	.type	_ZNSt7__cxx1112basic_stringIcSt11char_traitsIcESaIcEE6appendEmc,@function
_ZNSt7__cxx1112basic_stringIcSt11char_traitsIcESaIcEE6appendEmc: # @_ZNSt7__cxx1112basic_stringIcSt11char_traitsIcESaIcEE6appendEmc
	.cfi_startproc
# %bb.0:
	pushq	%rbp
	.cfi_def_cfa_offset 16
	.cfi_offset %rbp, -16
	movq	%rsp, %rbp
	.cfi_def_cfa_register %rbp
	subq	$32, %rsp
	movb	%dl, %al
	movq	%rdi, -8(%rbp)
	movq	%rsi, -16(%rbp)
	movb	%al, -17(%rbp)
	movq	-8(%rbp), %rdi
	movq	%rdi, -32(%rbp)                 # 8-byte Spill
	callq	_ZNKSt7__cxx1112basic_stringIcSt11char_traitsIcESaIcEE4sizeEv
	movq	-32(%rbp), %rdi                 # 8-byte Reload
	movq	%rax, %rsi
	movq	-16(%rbp), %rcx
	xorl	%eax, %eax
	movl	%eax, %edx
	movsbl	-17(%rbp), %r8d
	callq	_ZNSt7__cxx1112basic_stringIcSt11char_traitsIcESaIcEE14_M_replace_auxEmmmc
	addq	$32, %rsp
	popq	%rbp
	.cfi_def_cfa %rsp, 8
	retq
.Lfunc_end82:
	.size	_ZNSt7__cxx1112basic_stringIcSt11char_traitsIcESaIcEE6appendEmc, .Lfunc_end82-_ZNSt7__cxx1112basic_stringIcSt11char_traitsIcESaIcEE6appendEmc
	.cfi_endproc
                                        # -- End function
	.section	.text._ZNSt7__cxx1112basic_stringIcSt11char_traitsIcESaIcEE14_M_replace_auxEmmmc,"axG",@progbits,_ZNSt7__cxx1112basic_stringIcSt11char_traitsIcESaIcEE14_M_replace_auxEmmmc,comdat
	.weak	_ZNSt7__cxx1112basic_stringIcSt11char_traitsIcESaIcEE14_M_replace_auxEmmmc # -- Begin function _ZNSt7__cxx1112basic_stringIcSt11char_traitsIcESaIcEE14_M_replace_auxEmmmc
	.p2align	4, 0x90
	.type	_ZNSt7__cxx1112basic_stringIcSt11char_traitsIcESaIcEE14_M_replace_auxEmmmc,@function
_ZNSt7__cxx1112basic_stringIcSt11char_traitsIcESaIcEE14_M_replace_auxEmmmc: # @_ZNSt7__cxx1112basic_stringIcSt11char_traitsIcESaIcEE14_M_replace_auxEmmmc
	.cfi_startproc
# %bb.0:
	pushq	%rbp
	.cfi_def_cfa_offset 16
	.cfi_offset %rbp, -16
	movq	%rsp, %rbp
	.cfi_def_cfa_register %rbp
	subq	$96, %rsp
	movb	%r8b, %al
	movq	%rdi, -8(%rbp)
	movq	%rsi, -16(%rbp)
	movq	%rdx, -24(%rbp)
	movq	%rcx, -32(%rbp)
	movb	%al, -33(%rbp)
	movq	-8(%rbp), %rdi
	movq	%rdi, -88(%rbp)                 # 8-byte Spill
	movq	-24(%rbp), %rsi
	movq	-32(%rbp), %rdx
	leaq	.L.str.4(%rip), %rcx
	callq	_ZNKSt7__cxx1112basic_stringIcSt11char_traitsIcESaIcEE15_M_check_lengthEmmPKc
	movq	-88(%rbp), %rdi                 # 8-byte Reload
	callq	_ZNKSt7__cxx1112basic_stringIcSt11char_traitsIcESaIcEE4sizeEv
	movq	-88(%rbp), %rdi                 # 8-byte Reload
	movq	%rax, -48(%rbp)
	movq	-48(%rbp), %rax
	addq	-32(%rbp), %rax
	subq	-24(%rbp), %rax
	movq	%rax, -56(%rbp)
	movq	-56(%rbp), %rax
	movq	%rax, -80(%rbp)                 # 8-byte Spill
	callq	_ZNKSt7__cxx1112basic_stringIcSt11char_traitsIcESaIcEE8capacityEv
	movq	%rax, %rcx
	movq	-80(%rbp), %rax                 # 8-byte Reload
	cmpq	%rcx, %rax
	ja	.LBB83_5
# %bb.1:
	movq	-88(%rbp), %rdi                 # 8-byte Reload
	callq	_ZNKSt7__cxx1112basic_stringIcSt11char_traitsIcESaIcEE7_M_dataEv
	addq	-16(%rbp), %rax
	movq	%rax, -64(%rbp)
	movq	-48(%rbp), %rax
	subq	-16(%rbp), %rax
	subq	-24(%rbp), %rax
	movq	%rax, -72(%rbp)
	cmpq	$0, -72(%rbp)
	je	.LBB83_4
# %bb.2:
	movq	-24(%rbp), %rax
	cmpq	-32(%rbp), %rax
	je	.LBB83_4
# %bb.3:
	movq	-64(%rbp), %rdi
	addq	-32(%rbp), %rdi
	movq	-64(%rbp), %rsi
	addq	-24(%rbp), %rsi
	movq	-72(%rbp), %rdx
	callq	_ZNSt7__cxx1112basic_stringIcSt11char_traitsIcESaIcEE7_S_moveEPcPKcm
.LBB83_4:
	jmp	.LBB83_6
.LBB83_5:
	movq	-88(%rbp), %rdi                 # 8-byte Reload
	movq	-16(%rbp), %rsi
	movq	-24(%rbp), %rdx
	movq	-32(%rbp), %r8
	xorl	%eax, %eax
	movl	%eax, %ecx
	callq	_ZNSt7__cxx1112basic_stringIcSt11char_traitsIcESaIcEE9_M_mutateEmmPKcm
.LBB83_6:
	cmpq	$0, -32(%rbp)
	je	.LBB83_8
# %bb.7:
	movq	-88(%rbp), %rdi                 # 8-byte Reload
	callq	_ZNKSt7__cxx1112basic_stringIcSt11char_traitsIcESaIcEE7_M_dataEv
	movq	%rax, %rdi
	addq	-16(%rbp), %rdi
	movq	-32(%rbp), %rsi
	movsbl	-33(%rbp), %edx
	callq	_ZNSt7__cxx1112basic_stringIcSt11char_traitsIcESaIcEE9_S_assignEPcmc
.LBB83_8:
	movq	-88(%rbp), %rdi                 # 8-byte Reload
	movq	-56(%rbp), %rsi
	callq	_ZNSt7__cxx1112basic_stringIcSt11char_traitsIcESaIcEE13_M_set_lengthEm
	movq	-88(%rbp), %rax                 # 8-byte Reload
	addq	$96, %rsp
	popq	%rbp
	.cfi_def_cfa %rsp, 8
	retq
.Lfunc_end83:
	.size	_ZNSt7__cxx1112basic_stringIcSt11char_traitsIcESaIcEE14_M_replace_auxEmmmc, .Lfunc_end83-_ZNSt7__cxx1112basic_stringIcSt11char_traitsIcESaIcEE14_M_replace_auxEmmmc
	.cfi_endproc
                                        # -- End function
	.section	.text._ZNSt7__cxx1112basic_stringIcSt11char_traitsIcESaIcEE7_S_moveEPcPKcm,"axG",@progbits,_ZNSt7__cxx1112basic_stringIcSt11char_traitsIcESaIcEE7_S_moveEPcPKcm,comdat
	.weak	_ZNSt7__cxx1112basic_stringIcSt11char_traitsIcESaIcEE7_S_moveEPcPKcm # -- Begin function _ZNSt7__cxx1112basic_stringIcSt11char_traitsIcESaIcEE7_S_moveEPcPKcm
	.p2align	4, 0x90
	.type	_ZNSt7__cxx1112basic_stringIcSt11char_traitsIcESaIcEE7_S_moveEPcPKcm,@function
_ZNSt7__cxx1112basic_stringIcSt11char_traitsIcESaIcEE7_S_moveEPcPKcm: # @_ZNSt7__cxx1112basic_stringIcSt11char_traitsIcESaIcEE7_S_moveEPcPKcm
	.cfi_startproc
# %bb.0:
	pushq	%rbp
	.cfi_def_cfa_offset 16
	.cfi_offset %rbp, -16
	movq	%rsp, %rbp
	.cfi_def_cfa_register %rbp
	subq	$32, %rsp
	movq	%rdi, -8(%rbp)
	movq	%rsi, -16(%rbp)
	movq	%rdx, -24(%rbp)
	cmpq	$1, -24(%rbp)
	jne	.LBB84_2
# %bb.1:
	movq	-8(%rbp), %rdi
	movq	-16(%rbp), %rsi
	callq	_ZNSt11char_traitsIcE6assignERcRKc
	jmp	.LBB84_3
.LBB84_2:
	movq	-8(%rbp), %rdi
	movq	-16(%rbp), %rsi
	movq	-24(%rbp), %rdx
	callq	_ZNSt11char_traitsIcE4moveEPcPKcm
.LBB84_3:
	addq	$32, %rsp
	popq	%rbp
	.cfi_def_cfa %rsp, 8
	retq
.Lfunc_end84:
	.size	_ZNSt7__cxx1112basic_stringIcSt11char_traitsIcESaIcEE7_S_moveEPcPKcm, .Lfunc_end84-_ZNSt7__cxx1112basic_stringIcSt11char_traitsIcESaIcEE7_S_moveEPcPKcm
	.cfi_endproc
                                        # -- End function
	.section	.text._ZNSt7__cxx1112basic_stringIcSt11char_traitsIcESaIcEE9_S_assignEPcmc,"axG",@progbits,_ZNSt7__cxx1112basic_stringIcSt11char_traitsIcESaIcEE9_S_assignEPcmc,comdat
	.weak	_ZNSt7__cxx1112basic_stringIcSt11char_traitsIcESaIcEE9_S_assignEPcmc # -- Begin function _ZNSt7__cxx1112basic_stringIcSt11char_traitsIcESaIcEE9_S_assignEPcmc
	.p2align	4, 0x90
	.type	_ZNSt7__cxx1112basic_stringIcSt11char_traitsIcESaIcEE9_S_assignEPcmc,@function
_ZNSt7__cxx1112basic_stringIcSt11char_traitsIcESaIcEE9_S_assignEPcmc: # @_ZNSt7__cxx1112basic_stringIcSt11char_traitsIcESaIcEE9_S_assignEPcmc
	.cfi_startproc
# %bb.0:
	pushq	%rbp
	.cfi_def_cfa_offset 16
	.cfi_offset %rbp, -16
	movq	%rsp, %rbp
	.cfi_def_cfa_register %rbp
	subq	$32, %rsp
	movb	%dl, %al
	movq	%rdi, -8(%rbp)
	movq	%rsi, -16(%rbp)
	movb	%al, -17(%rbp)
	cmpq	$1, -16(%rbp)
	jne	.LBB85_2
# %bb.1:
	movq	-8(%rbp), %rdi
	leaq	-17(%rbp), %rsi
	callq	_ZNSt11char_traitsIcE6assignERcRKc
	jmp	.LBB85_3
.LBB85_2:
	movq	-8(%rbp), %rdi
	movq	-16(%rbp), %rsi
	movsbl	-17(%rbp), %edx
	callq	_ZNSt11char_traitsIcE6assignEPcmc
.LBB85_3:
	addq	$32, %rsp
	popq	%rbp
	.cfi_def_cfa %rsp, 8
	retq
.Lfunc_end85:
	.size	_ZNSt7__cxx1112basic_stringIcSt11char_traitsIcESaIcEE9_S_assignEPcmc, .Lfunc_end85-_ZNSt7__cxx1112basic_stringIcSt11char_traitsIcESaIcEE9_S_assignEPcmc
	.cfi_endproc
                                        # -- End function
	.section	.text._ZNSt11char_traitsIcE4moveEPcPKcm,"axG",@progbits,_ZNSt11char_traitsIcE4moveEPcPKcm,comdat
	.weak	_ZNSt11char_traitsIcE4moveEPcPKcm # -- Begin function _ZNSt11char_traitsIcE4moveEPcPKcm
	.p2align	4, 0x90
	.type	_ZNSt11char_traitsIcE4moveEPcPKcm,@function
_ZNSt11char_traitsIcE4moveEPcPKcm:      # @_ZNSt11char_traitsIcE4moveEPcPKcm
	.cfi_startproc
# %bb.0:
	pushq	%rbp
	.cfi_def_cfa_offset 16
	.cfi_offset %rbp, -16
	movq	%rsp, %rbp
	.cfi_def_cfa_register %rbp
	subq	$48, %rsp
	movq	%rdi, -16(%rbp)
	movq	%rsi, -24(%rbp)
	movq	%rdx, -32(%rbp)
	cmpq	$0, -32(%rbp)
	jne	.LBB86_2
# %bb.1:
	movq	-16(%rbp), %rax
	movq	%rax, -8(%rbp)
	jmp	.LBB86_3
.LBB86_2:
	movq	-16(%rbp), %rdi
	movq	%rdi, -40(%rbp)                 # 8-byte Spill
	movq	-24(%rbp), %rsi
	movq	-32(%rbp), %rdx
	callq	memmove@PLT
                                        # kill: def $rcx killed $rax
	movq	-40(%rbp), %rax                 # 8-byte Reload
	movq	%rax, -8(%rbp)
.LBB86_3:
	movq	-8(%rbp), %rax
	addq	$48, %rsp
	popq	%rbp
	.cfi_def_cfa %rsp, 8
	retq
.Lfunc_end86:
	.size	_ZNSt11char_traitsIcE4moveEPcPKcm, .Lfunc_end86-_ZNSt11char_traitsIcE4moveEPcPKcm
	.cfi_endproc
                                        # -- End function
	.section	.text._ZNSt11char_traitsIcE6assignEPcmc,"axG",@progbits,_ZNSt11char_traitsIcE6assignEPcmc,comdat
	.weak	_ZNSt11char_traitsIcE6assignEPcmc # -- Begin function _ZNSt11char_traitsIcE6assignEPcmc
	.p2align	4, 0x90
	.type	_ZNSt11char_traitsIcE6assignEPcmc,@function
_ZNSt11char_traitsIcE6assignEPcmc:      # @_ZNSt11char_traitsIcE6assignEPcmc
	.cfi_startproc
# %bb.0:
	pushq	%rbp
	.cfi_def_cfa_offset 16
	.cfi_offset %rbp, -16
	movq	%rsp, %rbp
	.cfi_def_cfa_register %rbp
	subq	$48, %rsp
	movb	%dl, %al
	movq	%rdi, -16(%rbp)
	movq	%rsi, -24(%rbp)
	movb	%al, -25(%rbp)
	cmpq	$0, -24(%rbp)
	jne	.LBB87_2
# %bb.1:
	movq	-16(%rbp), %rax
	movq	%rax, -8(%rbp)
	jmp	.LBB87_3
.LBB87_2:
	movq	-16(%rbp), %rdi
	movq	%rdi, -40(%rbp)                 # 8-byte Spill
	movsbl	-25(%rbp), %eax
                                        # kill: def $al killed $al killed $eax
	movq	-24(%rbp), %rdx
	movzbl	%al, %esi
	callq	memset@PLT
	movq	-40(%rbp), %rax                 # 8-byte Reload
	movq	%rax, -8(%rbp)
.LBB87_3:
	movq	-8(%rbp), %rax
	addq	$48, %rsp
	popq	%rbp
	.cfi_def_cfa %rsp, 8
	retq
.Lfunc_end87:
	.size	_ZNSt11char_traitsIcE6assignEPcmc, .Lfunc_end87-_ZNSt11char_traitsIcE6assignEPcmc
	.cfi_endproc
                                        # -- End function
	.section	.text._ZNSt8__format15__do_vformat_toINS_10_Sink_iterIcEEcSt20basic_format_contextIS2_cEEET_S5_St17basic_string_viewIT0_St11char_traitsIS7_EERKSt17basic_format_argsIT1_EPKSt6locale,"axG",@progbits,_ZNSt8__format15__do_vformat_toINS_10_Sink_iterIcEEcSt20basic_format_contextIS2_cEEET_S5_St17basic_string_viewIT0_St11char_traitsIS7_EERKSt17basic_format_argsIT1_EPKSt6locale,comdat
	.weak	_ZNSt8__format15__do_vformat_toINS_10_Sink_iterIcEEcSt20basic_format_contextIS2_cEEET_S5_St17basic_string_viewIT0_St11char_traitsIS7_EERKSt17basic_format_argsIT1_EPKSt6locale # -- Begin function _ZNSt8__format15__do_vformat_toINS_10_Sink_iterIcEEcSt20basic_format_contextIS2_cEEET_S5_St17basic_string_viewIT0_St11char_traitsIS7_EERKSt17basic_format_argsIT1_EPKSt6locale
	.p2align	4, 0x90
	.type	_ZNSt8__format15__do_vformat_toINS_10_Sink_iterIcEEcSt20basic_format_contextIS2_cEEET_S5_St17basic_string_viewIT0_St11char_traitsIS7_EERKSt17basic_format_argsIT1_EPKSt6locale,@function
_ZNSt8__format15__do_vformat_toINS_10_Sink_iterIcEEcSt20basic_format_contextIS2_cEEET_S5_St17basic_string_viewIT0_St11char_traitsIS7_EERKSt17basic_format_argsIT1_EPKSt6locale: # @_ZNSt8__format15__do_vformat_toINS_10_Sink_iterIcEEcSt20basic_format_contextIS2_cEEET_S5_St17basic_string_viewIT0_St11char_traitsIS7_EERKSt17basic_format_argsIT1_EPKSt6locale
.Lfunc_begin12:
	.cfi_startproc
	.cfi_personality 155, DW.ref.__gxx_personality_v0
	.cfi_lsda 27, .Lexception12
# %bb.0:
	pushq	%rbp
	.cfi_def_cfa_offset 16
	.cfi_offset %rbp, -16
	movq	%rsp, %rbp
	.cfi_def_cfa_register %rbp
	subq	$800, %rsp                      # imm = 0x320
	movq	%rdi, -120(%rbp)
	movq	%rsi, -136(%rbp)
	movq	%rdx, -128(%rbp)
	movq	%rcx, -144(%rbp)
	movq	%r8, -152(%rbp)
	movq	-120(%rbp), %rax
	movq	%rax, -472(%rbp)
	movq	-472(%rbp), %rax
	movq	%rax, -88(%rbp)
	leaq	-464(%rbp), %rax
	movq	%rax, -96(%rbp)
	movq	$-1, -104(%rbp)
	movq	-96(%rbp), %rax
	movq	%rax, -728(%rbp)                # 8-byte Spill
	movq	%rax, -64(%rbp)
	movq	-64(%rbp), %rsi
	movq	%rsi, -736(%rbp)                # 8-byte Spill
	leaq	_ZTVNSt8__format9_Buf_sinkIcEE(%rip), %rax
	addq	$16, %rax
	movq	%rax, (%rsi)
	addq	$32, %rsi
	leaq	-80(%rbp), %rdi
	callq	_ZNSt4spanIcLm18446744073709551615EEC2ILm256EQooeqT0_L_ZSt14dynamic_extentEeqTL0__T0_EERAT__c
	movq	-736(%rbp), %rax                # 8-byte Reload
	movq	-80(%rbp), %rdx
	movq	-72(%rbp), %rcx
	movq	%rdx, -48(%rbp)
	movq	%rcx, -40(%rbp)
	movq	%rax, -56(%rbp)
	movq	-56(%rbp), %rax
	movq	%rax, -744(%rbp)                # 8-byte Spill
	leaq	_ZTVNSt8__format5_SinkIcEE(%rip), %rcx
	addq	$16, %rcx
	movq	%rcx, (%rax)
	movq	-48(%rbp), %rcx
	movq	%rcx, 8(%rax)
	movq	-40(%rbp), %rcx
	movq	%rcx, 16(%rax)
	leaq	-48(%rbp), %rdi
	callq	_ZNKSt4spanIcLm18446744073709551615EE5beginEv
	movq	-744(%rbp), %rdx                # 8-byte Reload
	movq	-736(%rbp), %rcx                # 8-byte Reload
	movq	%rax, %rsi
	movq	-728(%rbp), %rax                # 8-byte Reload
	movq	%rsi, 24(%rdx)
	leaq	_ZTVNSt8__format9_Buf_sinkIcEE(%rip), %rdx
	addq	$16, %rdx
	movq	%rdx, (%rcx)
	leaq	_ZTVNSt8__format10_Iter_sinkIcNS_10_Sink_iterIcEEEE(%rip), %rcx
	addq	$16, %rcx
	movq	%rcx, (%rax)
	movq	-88(%rbp), %rcx
	movq	%rcx, 288(%rax)
	movq	-104(%rbp), %rcx
	movq	%rcx, 296(%rax)
	movq	$0, 304(%rax)
	leaq	-480(%rbp), %rdi
	callq	_ZNSt8__format10_Sink_iterIcEC2Ev
	movq	-120(%rbp), %rax
	movq	%rax, -480(%rbp)
	leaq	-136(%rbp), %rdi
	callq	_ZNKSt17basic_string_viewIcSt11char_traitsIcEE4sizeEv
	cmpq	$2, %rax
	jne	.LBB88_12
# %bb.1:
	leaq	-136(%rbp), %rdi
	xorl	%eax, %eax
	movl	%eax, %esi
	callq	_ZNKSt17basic_string_viewIcSt11char_traitsIcEEixEm
	movsbl	(%rax), %eax
	cmpl	$123, %eax
	jne	.LBB88_12
# %bb.2:
	leaq	-136(%rbp), %rdi
	movl	$1, %esi
	callq	_ZNKSt17basic_string_viewIcSt11char_traitsIcEEixEm
	movsbl	(%rax), %eax
	cmpl	$125, %eax
	jne	.LBB88_12
# %bb.3:
	movb	$0, -481(%rbp)
	leaq	-480(%rbp), %rax
	movq	%rax, -504(%rbp)
	leaq	-481(%rbp), %rax
	movq	%rax, -496(%rbp)
	movq	-144(%rbp), %rax
	movq	%rax, -24(%rbp)
	movq	$0, -32(%rbp)
	movq	-24(%rbp), %rcx
	movq	%rcx, -752(%rbp)                # 8-byte Spill
	leaq	-544(%rbp), %rax
	movq	%rax, -16(%rbp)
	movq	-16(%rbp), %rax
	movq	%rax, -8(%rbp)
	movb	$0, 16(%rax)
	movq	-32(%rbp), %rax
	movq	(%rcx), %rcx
	andq	$15, %rcx
	cmpq	%rcx, %rax
	jae	.LBB88_5
# %bb.4:
	movq	-752(%rbp), %rdi                # 8-byte Reload
	movq	-32(%rbp), %rsi
	callq	_ZNKSt17basic_format_argsISt20basic_format_contextINSt8__format10_Sink_iterIcEEcEE7_M_typeEm
	movb	%al, %cl
	movq	-752(%rbp), %rax                # 8-byte Reload
	movb	%cl, -528(%rbp)
	movq	8(%rax), %rax
	movq	-32(%rbp), %rcx
	shlq	$4, %rcx
	addq	%rcx, %rax
	movq	(%rax), %rcx
	movq	%rcx, -544(%rbp)
	movq	8(%rax), %rax
	movq	%rax, -536(%rbp)
	jmp	.LBB88_9
.LBB88_5:
	movq	-752(%rbp), %rax                # 8-byte Reload
	movq	(%rax), %rax
	andq	$15, %rax
                                        # kill: def $eax killed $eax killed $rax
	cmpl	$0, %eax
	jne	.LBB88_8
# %bb.6:
	movq	-752(%rbp), %rcx                # 8-byte Reload
	movq	-32(%rbp), %rax
	movq	(%rcx), %rcx
	shrq	$4, %rcx
	cmpq	%rcx, %rax
	jae	.LBB88_8
# %bb.7:
	movq	-752(%rbp), %rax                # 8-byte Reload
	movq	8(%rax), %rax
	movq	-32(%rbp), %rcx
	shlq	$5, %rcx
	addq	%rcx, %rax
	movq	(%rax), %rcx
	movq	%rcx, -544(%rbp)
	movq	8(%rax), %rcx
	movq	%rcx, -536(%rbp)
	movb	16(%rax), %al
	movb	%al, -528(%rbp)
.LBB88_8:
	jmp	.LBB88_9
.LBB88_9:
	leaq	-504(%rbp), %rdi
	leaq	-544(%rbp), %rax
	movq	(%rax), %rcx
	movq	%rcx, (%rsp)
	movq	8(%rax), %rcx
	movq	%rcx, 8(%rsp)
	movq	16(%rax), %rcx
	movq	%rcx, 16(%rsp)
	movq	24(%rax), %rax
	movq	%rax, 24(%rsp)
	callq	_ZSt16visit_format_argIZNSt8__format15__do_vformat_toINS0_10_Sink_iterIcEEcSt20basic_format_contextIS3_cEEET_S6_St17basic_string_viewIT0_St11char_traitsIS8_EERKSt17basic_format_argsIT1_EPKSt6localeEUlRS6_E_S5_EDcOS6_St16basic_format_argIS8_E
	testb	$1, -481(%rbp)
	je	.LBB88_11
# %bb.10:
	movq	-480(%rbp), %rax
	movq	%rax, -112(%rbp)
	jmp	.LBB88_20
.LBB88_11:
	jmp	.LBB88_12
.LBB88_12:
	cmpq	$0, -152(%rbp)
	jne	.LBB88_14
# %bb.13:
	movq	-144(%rbp), %rax
	movq	(%rax), %rcx
	movq	%rcx, -600(%rbp)
	movq	8(%rax), %rax
	movq	%rax, -592(%rbp)
	movq	-480(%rbp), %rax
	movq	%rax, -608(%rbp)
	movq	-600(%rbp), %rsi
	movq	-592(%rbp), %rdx
	movq	-608(%rbp), %rcx
	leaq	-584(%rbp), %rdi
	callq	_ZNSt20basic_format_contextINSt8__format10_Sink_iterIcEEcEC2ESt17basic_format_argsIS3_ES2_
	jmp	.LBB88_15
.LBB88_14:
	movq	-144(%rbp), %rax
	movq	(%rax), %rcx
	movq	%rcx, -624(%rbp)
	movq	8(%rax), %rax
	movq	%rax, -616(%rbp)
	movq	-480(%rbp), %rax
	movq	%rax, -632(%rbp)
	movq	-152(%rbp), %r8
	movq	-624(%rbp), %rsi
	movq	-616(%rbp), %rdx
	movq	-632(%rbp), %rcx
	leaq	-584(%rbp), %rdi
	callq	_ZNSt20basic_format_contextINSt8__format10_Sink_iterIcEEcEC2ESt17basic_format_argsIS3_ES2_RKSt6locale
.LBB88_15:
	movups	-136(%rbp), %xmm0
	movaps	%xmm0, -704(%rbp)
	movq	-704(%rbp), %rdx
	movq	-696(%rbp), %rcx
.Ltmp46:
	leaq	-688(%rbp), %rdi
	leaq	-584(%rbp), %rsi
	callq	_ZNSt8__format19_Formatting_scannerINS_10_Sink_iterIcEEcEC2ERSt20basic_format_contextIS2_cESt17basic_string_viewIcSt11char_traitsIcEE
.Ltmp47:
	jmp	.LBB88_16
.LBB88_16:
.Ltmp48:
	leaq	-688(%rbp), %rdi
	callq	_ZNSt8__format8_ScannerIcE7_M_scanEv
.Ltmp49:
	jmp	.LBB88_17
.LBB88_17:
.Ltmp50:
	leaq	-584(%rbp), %rdi
	callq	_ZNSt20basic_format_contextINSt8__format10_Sink_iterIcEEcE3outEv
.Ltmp51:
	movq	%rax, -760(%rbp)                # 8-byte Spill
	jmp	.LBB88_18
.LBB88_18:
	movq	-760(%rbp), %rax                # 8-byte Reload
	movq	%rax, -112(%rbp)
	leaq	-584(%rbp), %rdi
	callq	_ZNSt20basic_format_contextINSt8__format10_Sink_iterIcEEcED2Ev
	jmp	.LBB88_20
.LBB88_19:
.Ltmp52:
	movq	%rax, %rcx
	movl	%edx, %eax
	movq	%rcx, -712(%rbp)
	movl	%eax, -716(%rbp)
	leaq	-584(%rbp), %rdi
	callq	_ZNSt20basic_format_contextINSt8__format10_Sink_iterIcEEcED2Ev
	jmp	.LBB88_21
.LBB88_20:
	movq	-112(%rbp), %rax
	addq	$800, %rsp                      # imm = 0x320
	popq	%rbp
	.cfi_def_cfa %rsp, 8
	retq
.LBB88_21:
	.cfi_def_cfa %rbp, 16
	movq	-712(%rbp), %rdi
	callq	_Unwind_Resume@PLT
.Lfunc_end88:
	.size	_ZNSt8__format15__do_vformat_toINS_10_Sink_iterIcEEcSt20basic_format_contextIS2_cEEET_S5_St17basic_string_viewIT0_St11char_traitsIS7_EERKSt17basic_format_argsIT1_EPKSt6locale, .Lfunc_end88-_ZNSt8__format15__do_vformat_toINS_10_Sink_iterIcEEcSt20basic_format_contextIS2_cEEET_S5_St17basic_string_viewIT0_St11char_traitsIS7_EERKSt17basic_format_argsIT1_EPKSt6locale
	.cfi_endproc
	.section	.gcc_except_table._ZNSt8__format15__do_vformat_toINS_10_Sink_iterIcEEcSt20basic_format_contextIS2_cEEET_S5_St17basic_string_viewIT0_St11char_traitsIS7_EERKSt17basic_format_argsIT1_EPKSt6locale,"aG",@progbits,_ZNSt8__format15__do_vformat_toINS_10_Sink_iterIcEEcSt20basic_format_contextIS2_cEEET_S5_St17basic_string_viewIT0_St11char_traitsIS7_EERKSt17basic_format_argsIT1_EPKSt6locale,comdat
	.p2align	2, 0x0
GCC_except_table88:
.Lexception12:
	.byte	255                             # @LPStart Encoding = omit
	.byte	255                             # @TType Encoding = omit
	.byte	1                               # Call site Encoding = uleb128
	.uleb128 .Lcst_end12-.Lcst_begin12
.Lcst_begin12:
	.uleb128 .Lfunc_begin12-.Lfunc_begin12  # >> Call Site 1 <<
	.uleb128 .Ltmp46-.Lfunc_begin12         #   Call between .Lfunc_begin12 and .Ltmp46
	.byte	0                               #     has no landing pad
	.byte	0                               #   On action: cleanup
	.uleb128 .Ltmp46-.Lfunc_begin12         # >> Call Site 2 <<
	.uleb128 .Ltmp51-.Ltmp46                #   Call between .Ltmp46 and .Ltmp51
	.uleb128 .Ltmp52-.Lfunc_begin12         #     jumps to .Ltmp52
	.byte	0                               #   On action: cleanup
	.uleb128 .Ltmp51-.Lfunc_begin12         # >> Call Site 3 <<
	.uleb128 .Lfunc_end88-.Ltmp51           #   Call between .Ltmp51 and .Lfunc_end88
	.byte	0                               #     has no landing pad
	.byte	0                               #   On action: cleanup
.Lcst_end12:
	.p2align	2, 0x0
                                        # -- End function
	.section	.text._ZNSt8__format10_Sink_iterIcEC2Ev,"axG",@progbits,_ZNSt8__format10_Sink_iterIcEC2Ev,comdat
	.weak	_ZNSt8__format10_Sink_iterIcEC2Ev # -- Begin function _ZNSt8__format10_Sink_iterIcEC2Ev
	.p2align	4, 0x90
	.type	_ZNSt8__format10_Sink_iterIcEC2Ev,@function
_ZNSt8__format10_Sink_iterIcEC2Ev:      # @_ZNSt8__format10_Sink_iterIcEC2Ev
	.cfi_startproc
# %bb.0:
	pushq	%rbp
	.cfi_def_cfa_offset 16
	.cfi_offset %rbp, -16
	movq	%rsp, %rbp
	.cfi_def_cfa_register %rbp
	movq	%rdi, -8(%rbp)
	movq	-8(%rbp), %rax
	movq	$0, (%rax)
	popq	%rbp
	.cfi_def_cfa %rsp, 8
	retq
.Lfunc_end89:
	.size	_ZNSt8__format10_Sink_iterIcEC2Ev, .Lfunc_end89-_ZNSt8__format10_Sink_iterIcEC2Ev
	.cfi_endproc
                                        # -- End function
	.section	.text._ZNKSt17basic_string_viewIcSt11char_traitsIcEE4sizeEv,"axG",@progbits,_ZNKSt17basic_string_viewIcSt11char_traitsIcEE4sizeEv,comdat
	.weak	_ZNKSt17basic_string_viewIcSt11char_traitsIcEE4sizeEv # -- Begin function _ZNKSt17basic_string_viewIcSt11char_traitsIcEE4sizeEv
	.p2align	4, 0x90
	.type	_ZNKSt17basic_string_viewIcSt11char_traitsIcEE4sizeEv,@function
_ZNKSt17basic_string_viewIcSt11char_traitsIcEE4sizeEv: # @_ZNKSt17basic_string_viewIcSt11char_traitsIcEE4sizeEv
	.cfi_startproc
# %bb.0:
	pushq	%rbp
	.cfi_def_cfa_offset 16
	.cfi_offset %rbp, -16
	movq	%rsp, %rbp
	.cfi_def_cfa_register %rbp
	movq	%rdi, -8(%rbp)
	movq	-8(%rbp), %rax
	movq	(%rax), %rax
	popq	%rbp
	.cfi_def_cfa %rsp, 8
	retq
.Lfunc_end90:
	.size	_ZNKSt17basic_string_viewIcSt11char_traitsIcEE4sizeEv, .Lfunc_end90-_ZNKSt17basic_string_viewIcSt11char_traitsIcEE4sizeEv
	.cfi_endproc
                                        # -- End function
	.section	.text._ZNKSt17basic_string_viewIcSt11char_traitsIcEEixEm,"axG",@progbits,_ZNKSt17basic_string_viewIcSt11char_traitsIcEEixEm,comdat
	.weak	_ZNKSt17basic_string_viewIcSt11char_traitsIcEEixEm # -- Begin function _ZNKSt17basic_string_viewIcSt11char_traitsIcEEixEm
	.p2align	4, 0x90
	.type	_ZNKSt17basic_string_viewIcSt11char_traitsIcEEixEm,@function
_ZNKSt17basic_string_viewIcSt11char_traitsIcEEixEm: # @_ZNKSt17basic_string_viewIcSt11char_traitsIcEEixEm
	.cfi_startproc
# %bb.0:
	pushq	%rbp
	.cfi_def_cfa_offset 16
	.cfi_offset %rbp, -16
	movq	%rsp, %rbp
	.cfi_def_cfa_register %rbp
	movq	%rdi, -8(%rbp)
	movq	%rsi, -16(%rbp)
	movq	-8(%rbp), %rax
	movq	%rax, -24(%rbp)                 # 8-byte Spill
# %bb.1:
	jmp	.LBB91_2
.LBB91_2:
	jmp	.LBB91_3
.LBB91_3:
	movq	-24(%rbp), %rax                 # 8-byte Reload
	movq	8(%rax), %rax
	addq	-16(%rbp), %rax
	popq	%rbp
	.cfi_def_cfa %rsp, 8
	retq
.Lfunc_end91:
	.size	_ZNKSt17basic_string_viewIcSt11char_traitsIcEEixEm, .Lfunc_end91-_ZNKSt17basic_string_viewIcSt11char_traitsIcEEixEm
	.cfi_endproc
                                        # -- End function
	.section	.text._ZSt16visit_format_argIZNSt8__format15__do_vformat_toINS0_10_Sink_iterIcEEcSt20basic_format_contextIS3_cEEET_S6_St17basic_string_viewIT0_St11char_traitsIS8_EERKSt17basic_format_argsIT1_EPKSt6localeEUlRS6_E_S5_EDcOS6_St16basic_format_argIS8_E,"axG",@progbits,_ZSt16visit_format_argIZNSt8__format15__do_vformat_toINS0_10_Sink_iterIcEEcSt20basic_format_contextIS3_cEEET_S6_St17basic_string_viewIT0_St11char_traitsIS8_EERKSt17basic_format_argsIT1_EPKSt6localeEUlRS6_E_S5_EDcOS6_St16basic_format_argIS8_E,comdat
	.weak	_ZSt16visit_format_argIZNSt8__format15__do_vformat_toINS0_10_Sink_iterIcEEcSt20basic_format_contextIS3_cEEET_S6_St17basic_string_viewIT0_St11char_traitsIS8_EERKSt17basic_format_argsIT1_EPKSt6localeEUlRS6_E_S5_EDcOS6_St16basic_format_argIS8_E # -- Begin function _ZSt16visit_format_argIZNSt8__format15__do_vformat_toINS0_10_Sink_iterIcEEcSt20basic_format_contextIS3_cEEET_S6_St17basic_string_viewIT0_St11char_traitsIS8_EERKSt17basic_format_argsIT1_EPKSt6localeEUlRS6_E_S5_EDcOS6_St16basic_format_argIS8_E
	.p2align	4, 0x90
	.type	_ZSt16visit_format_argIZNSt8__format15__do_vformat_toINS0_10_Sink_iterIcEEcSt20basic_format_contextIS3_cEEET_S6_St17basic_string_viewIT0_St11char_traitsIS8_EERKSt17basic_format_argsIT1_EPKSt6localeEUlRS6_E_S5_EDcOS6_St16basic_format_argIS8_E,@function
_ZSt16visit_format_argIZNSt8__format15__do_vformat_toINS0_10_Sink_iterIcEEcSt20basic_format_contextIS3_cEEET_S6_St17basic_string_viewIT0_St11char_traitsIS8_EERKSt17basic_format_argsIT1_EPKSt6localeEUlRS6_E_S5_EDcOS6_St16basic_format_argIS8_E: # @_ZSt16visit_format_argIZNSt8__format15__do_vformat_toINS0_10_Sink_iterIcEEcSt20basic_format_contextIS3_cEEET_S6_St17basic_string_viewIT0_St11char_traitsIS8_EERKSt17basic_format_argsIT1_EPKSt6localeEUlRS6_E_S5_EDcOS6_St16basic_format_argIS8_E
	.cfi_startproc
# %bb.0:
	pushq	%rbp
	.cfi_def_cfa_offset 16
	.cfi_offset %rbp, -16
	movq	%rsp, %rbp
	.cfi_def_cfa_register %rbp
	subq	$16, %rsp
	leaq	16(%rbp), %rax
	movq	%rdi, -8(%rbp)
	movq	-8(%rbp), %rsi
	movq	%rax, %rdi
	movzbl	16(%rax), %edx
	callq	_ZNSt16basic_format_argISt20basic_format_contextINSt8__format10_Sink_iterIcEEcEE8_M_visitIZNS1_15__do_vformat_toIS3_cS4_EET_S8_St17basic_string_viewIT0_St11char_traitsISA_EERKSt17basic_format_argsIT1_EPKSt6localeEUlRS8_E_EEDcOS8_NS1_6_Arg_tE
	addq	$16, %rsp
	popq	%rbp
	.cfi_def_cfa %rsp, 8
	retq
.Lfunc_end92:
	.size	_ZSt16visit_format_argIZNSt8__format15__do_vformat_toINS0_10_Sink_iterIcEEcSt20basic_format_contextIS3_cEEET_S6_St17basic_string_viewIT0_St11char_traitsIS8_EERKSt17basic_format_argsIT1_EPKSt6localeEUlRS6_E_S5_EDcOS6_St16basic_format_argIS8_E, .Lfunc_end92-_ZSt16visit_format_argIZNSt8__format15__do_vformat_toINS0_10_Sink_iterIcEEcSt20basic_format_contextIS3_cEEET_S6_St17basic_string_viewIT0_St11char_traitsIS8_EERKSt17basic_format_argsIT1_EPKSt6localeEUlRS6_E_S5_EDcOS6_St16basic_format_argIS8_E
	.cfi_endproc
                                        # -- End function
	.section	.text._ZNSt20basic_format_contextINSt8__format10_Sink_iterIcEEcEC2ESt17basic_format_argsIS3_ES2_,"axG",@progbits,_ZNSt20basic_format_contextINSt8__format10_Sink_iterIcEEcEC2ESt17basic_format_argsIS3_ES2_,comdat
	.weak	_ZNSt20basic_format_contextINSt8__format10_Sink_iterIcEEcEC2ESt17basic_format_argsIS3_ES2_ # -- Begin function _ZNSt20basic_format_contextINSt8__format10_Sink_iterIcEEcEC2ESt17basic_format_argsIS3_ES2_
	.p2align	4, 0x90
	.type	_ZNSt20basic_format_contextINSt8__format10_Sink_iterIcEEcEC2ESt17basic_format_argsIS3_ES2_,@function
_ZNSt20basic_format_contextINSt8__format10_Sink_iterIcEEcEC2ESt17basic_format_argsIS3_ES2_: # @_ZNSt20basic_format_contextINSt8__format10_Sink_iterIcEEcEC2ESt17basic_format_argsIS3_ES2_
	.cfi_startproc
# %bb.0:
	pushq	%rbp
	.cfi_def_cfa_offset 16
	.cfi_offset %rbp, -16
	movq	%rsp, %rbp
	.cfi_def_cfa_register %rbp
	movq	%rsi, -24(%rbp)
	movq	%rdx, -16(%rbp)
	movq	%rcx, -32(%rbp)
	movq	%rdi, -40(%rbp)
	movq	-40(%rbp), %rax
	movq	-24(%rbp), %rcx
	movq	%rcx, (%rax)
	movq	-16(%rbp), %rcx
	movq	%rcx, 8(%rax)
	movq	-32(%rbp), %rcx
	movq	%rcx, 16(%rax)
	addq	$24, %rax
	movq	%rax, -8(%rbp)
	movq	-8(%rbp), %rax
	movb	$0, (%rax)
	movb	$0, 8(%rax)
	popq	%rbp
	.cfi_def_cfa %rsp, 8
	retq
.Lfunc_end93:
	.size	_ZNSt20basic_format_contextINSt8__format10_Sink_iterIcEEcEC2ESt17basic_format_argsIS3_ES2_, .Lfunc_end93-_ZNSt20basic_format_contextINSt8__format10_Sink_iterIcEEcEC2ESt17basic_format_argsIS3_ES2_
	.cfi_endproc
                                        # -- End function
	.section	.text._ZNSt20basic_format_contextINSt8__format10_Sink_iterIcEEcEC2ESt17basic_format_argsIS3_ES2_RKSt6locale,"axG",@progbits,_ZNSt20basic_format_contextINSt8__format10_Sink_iterIcEEcEC2ESt17basic_format_argsIS3_ES2_RKSt6locale,comdat
	.weak	_ZNSt20basic_format_contextINSt8__format10_Sink_iterIcEEcEC2ESt17basic_format_argsIS3_ES2_RKSt6locale # -- Begin function _ZNSt20basic_format_contextINSt8__format10_Sink_iterIcEEcEC2ESt17basic_format_argsIS3_ES2_RKSt6locale
	.p2align	4, 0x90
	.type	_ZNSt20basic_format_contextINSt8__format10_Sink_iterIcEEcEC2ESt17basic_format_argsIS3_ES2_RKSt6locale,@function
_ZNSt20basic_format_contextINSt8__format10_Sink_iterIcEEcEC2ESt17basic_format_argsIS3_ES2_RKSt6locale: # @_ZNSt20basic_format_contextINSt8__format10_Sink_iterIcEEcEC2ESt17basic_format_argsIS3_ES2_RKSt6locale
	.cfi_startproc
# %bb.0:
	pushq	%rbp
	.cfi_def_cfa_offset 16
	.cfi_offset %rbp, -16
	movq	%rsp, %rbp
	.cfi_def_cfa_register %rbp
	subq	$48, %rsp
	movq	%rsi, -16(%rbp)
	movq	%rdx, -8(%rbp)
	movq	%rcx, -24(%rbp)
	movq	%rdi, -32(%rbp)
	movq	%r8, -40(%rbp)
	movq	-32(%rbp), %rdi
	movq	-16(%rbp), %rax
	movq	%rax, (%rdi)
	movq	-8(%rbp), %rax
	movq	%rax, 8(%rdi)
	movq	-24(%rbp), %rax
	movq	%rax, 16(%rdi)
	addq	$24, %rdi
	movq	-40(%rbp), %rsi
	callq	_ZNSt8__format16_Optional_localeC2ERKSt6locale
	addq	$48, %rsp
	popq	%rbp
	.cfi_def_cfa %rsp, 8
	retq
.Lfunc_end94:
	.size	_ZNSt20basic_format_contextINSt8__format10_Sink_iterIcEEcEC2ESt17basic_format_argsIS3_ES2_RKSt6locale, .Lfunc_end94-_ZNSt20basic_format_contextINSt8__format10_Sink_iterIcEEcEC2ESt17basic_format_argsIS3_ES2_RKSt6locale
	.cfi_endproc
                                        # -- End function
	.section	.text._ZNSt8__format19_Formatting_scannerINS_10_Sink_iterIcEEcEC2ERSt20basic_format_contextIS2_cESt17basic_string_viewIcSt11char_traitsIcEE,"axG",@progbits,_ZNSt8__format19_Formatting_scannerINS_10_Sink_iterIcEEcEC2ERSt20basic_format_contextIS2_cESt17basic_string_viewIcSt11char_traitsIcEE,comdat
	.weak	_ZNSt8__format19_Formatting_scannerINS_10_Sink_iterIcEEcEC2ERSt20basic_format_contextIS2_cESt17basic_string_viewIcSt11char_traitsIcEE # -- Begin function _ZNSt8__format19_Formatting_scannerINS_10_Sink_iterIcEEcEC2ERSt20basic_format_contextIS2_cESt17basic_string_viewIcSt11char_traitsIcEE
	.p2align	4, 0x90
	.type	_ZNSt8__format19_Formatting_scannerINS_10_Sink_iterIcEEcEC2ERSt20basic_format_contextIS2_cESt17basic_string_viewIcSt11char_traitsIcEE,@function
_ZNSt8__format19_Formatting_scannerINS_10_Sink_iterIcEEcEC2ERSt20basic_format_contextIS2_cESt17basic_string_viewIcSt11char_traitsIcEE: # @_ZNSt8__format19_Formatting_scannerINS_10_Sink_iterIcEEcEC2ERSt20basic_format_contextIS2_cESt17basic_string_viewIcSt11char_traitsIcEE
	.cfi_startproc
# %bb.0:
	pushq	%rbp
	.cfi_def_cfa_offset 16
	.cfi_offset %rbp, -16
	movq	%rsp, %rbp
	.cfi_def_cfa_register %rbp
	subq	$64, %rsp
	movq	%rdx, -16(%rbp)
	movq	%rcx, -8(%rbp)
	movq	%rdi, -24(%rbp)
	movq	%rsi, -32(%rbp)
	movq	-24(%rbp), %rdi
	movq	%rdi, -56(%rbp)                 # 8-byte Spill
	movq	-16(%rbp), %rax
	movq	%rax, -48(%rbp)
	movq	-8(%rbp), %rax
	movq	%rax, -40(%rbp)
	movq	-48(%rbp), %rsi
	movq	-40(%rbp), %rdx
	movq	$-1, %rcx
	callq	_ZNSt8__format8_ScannerIcEC2ESt17basic_string_viewIcSt11char_traitsIcEEm
	movq	-56(%rbp), %rax                 # 8-byte Reload
	leaq	_ZTVNSt8__format19_Formatting_scannerINS_10_Sink_iterIcEEcEE(%rip), %rcx
	addq	$16, %rcx
	movq	%rcx, (%rax)
	movq	-32(%rbp), %rcx
	movq	%rcx, 48(%rax)
	addq	$64, %rsp
	popq	%rbp
	.cfi_def_cfa %rsp, 8
	retq
.Lfunc_end95:
	.size	_ZNSt8__format19_Formatting_scannerINS_10_Sink_iterIcEEcEC2ERSt20basic_format_contextIS2_cESt17basic_string_viewIcSt11char_traitsIcEE, .Lfunc_end95-_ZNSt8__format19_Formatting_scannerINS_10_Sink_iterIcEEcEC2ERSt20basic_format_contextIS2_cESt17basic_string_viewIcSt11char_traitsIcEE
	.cfi_endproc
                                        # -- End function
	.section	.text._ZNSt8__format8_ScannerIcE7_M_scanEv,"axG",@progbits,_ZNSt8__format8_ScannerIcE7_M_scanEv,comdat
	.weak	_ZNSt8__format8_ScannerIcE7_M_scanEv # -- Begin function _ZNSt8__format8_ScannerIcE7_M_scanEv
	.p2align	4, 0x90
	.type	_ZNSt8__format8_ScannerIcE7_M_scanEv,@function
_ZNSt8__format8_ScannerIcE7_M_scanEv:   # @_ZNSt8__format8_ScannerIcE7_M_scanEv
	.cfi_startproc
# %bb.0:
	pushq	%rbp
	.cfi_def_cfa_offset 16
	.cfi_offset %rbp, -16
	movq	%rsp, %rbp
	.cfi_def_cfa_register %rbp
	subq	$192, %rsp
	movq	%rdi, -8(%rbp)
	movq	-8(%rbp), %rdi
	movq	%rdi, -120(%rbp)                # 8-byte Spill
	callq	_ZNKSt8__format8_ScannerIcE10_M_fmt_strEv
	movq	%rax, -24(%rbp)
	movq	%rdx, -16(%rbp)
	leaq	-24(%rbp), %rdi
	callq	_ZNKSt17basic_string_viewIcSt11char_traitsIcEE4sizeEv
	cmpq	$2, %rax
	jne	.LBB96_4
# %bb.1:
	leaq	-24(%rbp), %rdi
	xorl	%eax, %eax
	movl	%eax, %esi
	callq	_ZNKSt17basic_string_viewIcSt11char_traitsIcEEixEm
	movsbl	(%rax), %eax
	cmpl	$123, %eax
	jne	.LBB96_4
# %bb.2:
	leaq	-24(%rbp), %rdi
	movl	$1, %esi
	callq	_ZNKSt17basic_string_viewIcSt11char_traitsIcEEixEm
	movsbl	(%rax), %eax
	cmpl	$125, %eax
	jne	.LBB96_4
# %bb.3:
	movq	-120(%rbp), %rdi                # 8-byte Reload
	movq	%rdi, %rax
	addq	$8, %rax
	movq	%rax, -128(%rbp)                # 8-byte Spill
	callq	_ZNKSt8__format8_ScannerIcE5beginEv
	movq	-128(%rbp), %rdi                # 8-byte Reload
	movq	%rax, %rsi
	addq	$1, %rsi
	callq	_ZNSt26basic_format_parse_contextIcE10advance_toEPKc
	movq	-120(%rbp), %rdi                # 8-byte Reload
	addq	$8, %rdi
	callq	_ZNSt26basic_format_parse_contextIcE11next_arg_idEv
	movq	-120(%rbp), %rdi                # 8-byte Reload
	movq	%rax, %rsi
	movq	(%rdi), %rax
	callq	*8(%rax)
	jmp	.LBB96_27
.LBB96_4:
	leaq	-24(%rbp), %rdi
	movl	$123, %esi
	xorl	%eax, %eax
	movl	%eax, %edx
	callq	_ZNKSt17basic_string_viewIcSt11char_traitsIcEE4findEcm
	movq	%rax, -32(%rbp)
	leaq	-24(%rbp), %rdi
	movl	$125, %esi
	xorl	%eax, %eax
	movl	%eax, %edx
	callq	_ZNKSt17basic_string_viewIcSt11char_traitsIcEE4findEcm
	movq	%rax, -40(%rbp)
.LBB96_5:                               # =>This Inner Loop Header: Depth=1
	leaq	-24(%rbp), %rdi
	callq	_ZNKSt17basic_string_viewIcSt11char_traitsIcEE4sizeEv
	cmpq	$0, %rax
	je	.LBB96_27
# %bb.6:                                #   in Loop: Header=BB96_5 Depth=1
	movq	-32(%rbp), %rcx
	movq	%rcx, -152(%rbp)                # 8-byte Spill
	movq	-40(%rbp), %rdx
	movq	%rdx, -144(%rbp)                # 8-byte Spill
	movb	$255, %al
	movb	$1, %sil
	movb	%sil, -130(%rbp)                # 1-byte Spill
	cmpq	%rdx, %rcx
	movb	%al, -129(%rbp)                 # 1-byte Spill
	jb	.LBB96_29
# %bb.28:                               #   in Loop: Header=BB96_5 Depth=1
	movb	-130(%rbp), %al                 # 1-byte Reload
	movb	%al, -129(%rbp)                 # 1-byte Spill
.LBB96_29:                              #   in Loop: Header=BB96_5 Depth=1
	movq	-152(%rbp), %rcx                # 8-byte Reload
	movq	-144(%rbp), %rdx                # 8-byte Reload
	movb	-129(%rbp), %al                 # 1-byte Reload
	movb	%al, -154(%rbp)                 # 1-byte Spill
	xorl	%eax, %eax
                                        # kill: def $al killed $al killed $eax
	cmpq	%rdx, %rcx
	movb	%al, -153(%rbp)                 # 1-byte Spill
	je	.LBB96_31
# %bb.30:                               #   in Loop: Header=BB96_5 Depth=1
	movb	-154(%rbp), %al                 # 1-byte Reload
	movb	%al, -153(%rbp)                 # 1-byte Spill
.LBB96_31:                              #   in Loop: Header=BB96_5 Depth=1
	movb	-153(%rbp), %al                 # 1-byte Reload
	movb	%al, -41(%rbp)
	movb	-41(%rbp), %al
	movb	%al, -42(%rbp)
                                        # implicit-def: $al
	movb	%al, -43(%rbp)
	movzbl	-42(%rbp), %edi
	callq	_ZSteqSt15strong_orderingNSt9__cmp_cat8__unspecE
	testb	$1, %al
	jne	.LBB96_7
	jmp	.LBB96_8
.LBB96_7:
	movq	-120(%rbp), %rdi                # 8-byte Reload
	callq	_ZNKSt8__format8_ScannerIcE3endEv
	movq	-120(%rbp), %rdi                # 8-byte Reload
	movq	%rax, %rsi
	movq	(%rdi), %rax
	callq	*(%rax)
	movq	-120(%rbp), %rdi                # 8-byte Reload
	movq	%rdi, %rax
	addq	$8, %rax
	movq	%rax, -168(%rbp)                # 8-byte Spill
	callq	_ZNKSt8__format8_ScannerIcE3endEv
	movq	-168(%rbp), %rdi                # 8-byte Reload
	movq	%rax, %rsi
	callq	_ZNSt26basic_format_parse_contextIcE10advance_toEPKc
	jmp	.LBB96_27
.LBB96_8:                               #   in Loop: Header=BB96_5 Depth=1
	movb	-41(%rbp), %al
	movb	%al, -44(%rbp)
                                        # implicit-def: $al
	movb	%al, -45(%rbp)
	movzbl	-44(%rbp), %edi
	callq	_ZStltSt15strong_orderingNSt9__cmp_cat8__unspecE
	testb	$1, %al
	jne	.LBB96_9
	jmp	.LBB96_19
.LBB96_9:                               #   in Loop: Header=BB96_5 Depth=1
	movq	-32(%rbp), %rax
	addq	$1, %rax
	movq	%rax, -176(%rbp)                # 8-byte Spill
	leaq	-24(%rbp), %rdi
	callq	_ZNKSt17basic_string_viewIcSt11char_traitsIcEE4sizeEv
	movq	%rax, %rcx
	movq	-176(%rbp), %rax                # 8-byte Reload
	cmpq	%rcx, %rax
	je	.LBB96_12
# %bb.10:                               #   in Loop: Header=BB96_5 Depth=1
	cmpq	$-1, -40(%rbp)
	jne	.LBB96_13
# %bb.11:                               #   in Loop: Header=BB96_5 Depth=1
	movq	-32(%rbp), %rsi
	addq	$1, %rsi
	leaq	-24(%rbp), %rdi
	callq	_ZNKSt17basic_string_viewIcSt11char_traitsIcEEixEm
	movsbl	(%rax), %eax
	cmpl	$123, %eax
	je	.LBB96_13
.LBB96_12:
	callq	_ZNSt8__format39__unmatched_left_brace_in_format_stringEv
.LBB96_13:                              #   in Loop: Header=BB96_5 Depth=1
	movq	-32(%rbp), %rsi
	addq	$1, %rsi
	leaq	-24(%rbp), %rdi
	callq	_ZNKSt17basic_string_viewIcSt11char_traitsIcEEixEm
	movq	-120(%rbp), %rdi                # 8-byte Reload
	movsbl	(%rax), %eax
	cmpl	$123, %eax
	sete	%al
	andb	$1, %al
	movb	%al, -46(%rbp)
	callq	_ZNKSt8__format8_ScannerIcE5beginEv
	movq	-120(%rbp), %rdi                # 8-byte Reload
	addq	-32(%rbp), %rax
	movb	-46(%rbp), %cl
	andb	$1, %cl
	movzbl	%cl, %ecx
	movslq	%ecx, %rcx
	addq	%rcx, %rax
	movq	%rax, -56(%rbp)
	movq	-56(%rbp), %rsi
	movq	(%rdi), %rax
	callq	*(%rax)
	movq	-120(%rbp), %rdi                # 8-byte Reload
	addq	$8, %rdi
	movq	-56(%rbp), %rsi
	addq	$1, %rsi
	callq	_ZNSt26basic_format_parse_contextIcE10advance_toEPKc
	movq	-120(%rbp), %rdi                # 8-byte Reload
	callq	_ZNKSt8__format8_ScannerIcE10_M_fmt_strEv
	movq	%rax, -72(%rbp)
	movq	%rdx, -64(%rbp)
	movq	-72(%rbp), %rax
	movq	%rax, -24(%rbp)
	movq	-64(%rbp), %rax
	movq	%rax, -16(%rbp)
	testb	$1, -46(%rbp)
	je	.LBB96_17
# %bb.14:                               #   in Loop: Header=BB96_5 Depth=1
	cmpq	$-1, -40(%rbp)
	je	.LBB96_16
# %bb.15:                               #   in Loop: Header=BB96_5 Depth=1
	movq	-32(%rbp), %rcx
	addq	$2, %rcx
	movq	-40(%rbp), %rax
	subq	%rcx, %rax
	movq	%rax, -40(%rbp)
.LBB96_16:                              #   in Loop: Header=BB96_5 Depth=1
	leaq	-24(%rbp), %rdi
	movl	$123, %esi
	xorl	%eax, %eax
	movl	%eax, %edx
	callq	_ZNKSt17basic_string_viewIcSt11char_traitsIcEE4findEcm
	movq	%rax, -32(%rbp)
	jmp	.LBB96_18
.LBB96_17:                              #   in Loop: Header=BB96_5 Depth=1
	movq	-120(%rbp), %rdi                # 8-byte Reload
	callq	_ZNSt8__format8_ScannerIcE23_M_on_replacement_fieldEv
	movq	-120(%rbp), %rdi                # 8-byte Reload
	callq	_ZNKSt8__format8_ScannerIcE10_M_fmt_strEv
	movq	%rax, -88(%rbp)
	movq	%rdx, -80(%rbp)
	movq	-88(%rbp), %rax
	movq	%rax, -24(%rbp)
	movq	-80(%rbp), %rax
	movq	%rax, -16(%rbp)
	leaq	-24(%rbp), %rdi
	movl	$123, %esi
	xorl	%eax, %eax
	movl	%eax, %edx
	callq	_ZNKSt17basic_string_viewIcSt11char_traitsIcEE4findEcm
	movq	%rax, -32(%rbp)
	leaq	-24(%rbp), %rdi
	movl	$125, %esi
	xorl	%eax, %eax
	movl	%eax, %edx
	callq	_ZNKSt17basic_string_viewIcSt11char_traitsIcEE4findEcm
	movq	%rax, -40(%rbp)
.LBB96_18:                              #   in Loop: Header=BB96_5 Depth=1
	jmp	.LBB96_25
.LBB96_19:                              #   in Loop: Header=BB96_5 Depth=1
	movq	-40(%rbp), %rax
	addq	$1, %rax
	movq	%rax, -184(%rbp)                # 8-byte Spill
	movq	%rax, -40(%rbp)
	leaq	-24(%rbp), %rdi
	callq	_ZNKSt17basic_string_viewIcSt11char_traitsIcEE4sizeEv
	movq	%rax, %rcx
	movq	-184(%rbp), %rax                # 8-byte Reload
	cmpq	%rcx, %rax
	je	.LBB96_21
# %bb.20:                               #   in Loop: Header=BB96_5 Depth=1
	movq	-40(%rbp), %rsi
	leaq	-24(%rbp), %rdi
	callq	_ZNKSt17basic_string_viewIcSt11char_traitsIcEEixEm
	movsbl	(%rax), %eax
	cmpl	$125, %eax
	je	.LBB96_22
.LBB96_21:
	callq	_ZNSt8__format40__unmatched_right_brace_in_format_stringEv
.LBB96_22:                              #   in Loop: Header=BB96_5 Depth=1
	movq	-120(%rbp), %rdi                # 8-byte Reload
	callq	_ZNKSt8__format8_ScannerIcE5beginEv
	movq	-120(%rbp), %rdi                # 8-byte Reload
	addq	-40(%rbp), %rax
	movq	%rax, -96(%rbp)
	movq	-96(%rbp), %rsi
	movq	(%rdi), %rax
	callq	*(%rax)
	movq	-120(%rbp), %rdi                # 8-byte Reload
	addq	$8, %rdi
	movq	-96(%rbp), %rsi
	addq	$1, %rsi
	callq	_ZNSt26basic_format_parse_contextIcE10advance_toEPKc
	movq	-120(%rbp), %rdi                # 8-byte Reload
	callq	_ZNKSt8__format8_ScannerIcE10_M_fmt_strEv
	movq	%rax, -112(%rbp)
	movq	%rdx, -104(%rbp)
	movq	-112(%rbp), %rax
	movq	%rax, -24(%rbp)
	movq	-104(%rbp), %rax
	movq	%rax, -16(%rbp)
	cmpq	$-1, -32(%rbp)
	je	.LBB96_24
# %bb.23:                               #   in Loop: Header=BB96_5 Depth=1
	movq	-40(%rbp), %rcx
	addq	$1, %rcx
	movq	-32(%rbp), %rax
	subq	%rcx, %rax
	movq	%rax, -32(%rbp)
.LBB96_24:                              #   in Loop: Header=BB96_5 Depth=1
	leaq	-24(%rbp), %rdi
	movl	$125, %esi
	xorl	%eax, %eax
	movl	%eax, %edx
	callq	_ZNKSt17basic_string_viewIcSt11char_traitsIcEE4findEcm
	movq	%rax, -40(%rbp)
.LBB96_25:                              #   in Loop: Header=BB96_5 Depth=1
	jmp	.LBB96_26
.LBB96_26:                              #   in Loop: Header=BB96_5 Depth=1
	jmp	.LBB96_5
.LBB96_27:
	addq	$192, %rsp
	popq	%rbp
	.cfi_def_cfa %rsp, 8
	retq
.Lfunc_end96:
	.size	_ZNSt8__format8_ScannerIcE7_M_scanEv, .Lfunc_end96-_ZNSt8__format8_ScannerIcE7_M_scanEv
	.cfi_endproc
                                        # -- End function
	.section	.text._ZNSt20basic_format_contextINSt8__format10_Sink_iterIcEEcE3outEv,"axG",@progbits,_ZNSt20basic_format_contextINSt8__format10_Sink_iterIcEEcE3outEv,comdat
	.weak	_ZNSt20basic_format_contextINSt8__format10_Sink_iterIcEEcE3outEv # -- Begin function _ZNSt20basic_format_contextINSt8__format10_Sink_iterIcEEcE3outEv
	.p2align	4, 0x90
	.type	_ZNSt20basic_format_contextINSt8__format10_Sink_iterIcEEcE3outEv,@function
_ZNSt20basic_format_contextINSt8__format10_Sink_iterIcEEcE3outEv: # @_ZNSt20basic_format_contextINSt8__format10_Sink_iterIcEEcE3outEv
	.cfi_startproc
# %bb.0:
	pushq	%rbp
	.cfi_def_cfa_offset 16
	.cfi_offset %rbp, -16
	movq	%rsp, %rbp
	.cfi_def_cfa_register %rbp
	movq	%rdi, -16(%rbp)
	movq	-16(%rbp), %rax
	movq	16(%rax), %rax
	movq	%rax, -8(%rbp)
	movq	-8(%rbp), %rax
	popq	%rbp
	.cfi_def_cfa %rsp, 8
	retq
.Lfunc_end97:
	.size	_ZNSt20basic_format_contextINSt8__format10_Sink_iterIcEEcE3outEv, .Lfunc_end97-_ZNSt20basic_format_contextINSt8__format10_Sink_iterIcEEcE3outEv
	.cfi_endproc
                                        # -- End function
	.section	.text._ZNSt20basic_format_contextINSt8__format10_Sink_iterIcEEcED2Ev,"axG",@progbits,_ZNSt20basic_format_contextINSt8__format10_Sink_iterIcEEcED2Ev,comdat
	.weak	_ZNSt20basic_format_contextINSt8__format10_Sink_iterIcEEcED2Ev # -- Begin function _ZNSt20basic_format_contextINSt8__format10_Sink_iterIcEEcED2Ev
	.p2align	4, 0x90
	.type	_ZNSt20basic_format_contextINSt8__format10_Sink_iterIcEEcED2Ev,@function
_ZNSt20basic_format_contextINSt8__format10_Sink_iterIcEEcED2Ev: # @_ZNSt20basic_format_contextINSt8__format10_Sink_iterIcEEcED2Ev
	.cfi_startproc
# %bb.0:
	pushq	%rbp
	.cfi_def_cfa_offset 16
	.cfi_offset %rbp, -16
	movq	%rsp, %rbp
	.cfi_def_cfa_register %rbp
	subq	$16, %rsp
	movq	%rdi, -8(%rbp)
	movq	-8(%rbp), %rdi
	addq	$24, %rdi
	callq	_ZNSt8__format16_Optional_localeD2Ev
	addq	$16, %rsp
	popq	%rbp
	.cfi_def_cfa %rsp, 8
	retq
.Lfunc_end98:
	.size	_ZNSt20basic_format_contextINSt8__format10_Sink_iterIcEEcED2Ev, .Lfunc_end98-_ZNSt20basic_format_contextINSt8__format10_Sink_iterIcEEcED2Ev
	.cfi_endproc
                                        # -- End function
	.section	.text._ZNSt8__format10_Iter_sinkIcNS_10_Sink_iterIcEEE11_M_overflowEv,"axG",@progbits,_ZNSt8__format10_Iter_sinkIcNS_10_Sink_iterIcEEE11_M_overflowEv,comdat
	.weak	_ZNSt8__format10_Iter_sinkIcNS_10_Sink_iterIcEEE11_M_overflowEv # -- Begin function _ZNSt8__format10_Iter_sinkIcNS_10_Sink_iterIcEEE11_M_overflowEv
	.p2align	4, 0x90
	.type	_ZNSt8__format10_Iter_sinkIcNS_10_Sink_iterIcEEE11_M_overflowEv,@function
_ZNSt8__format10_Iter_sinkIcNS_10_Sink_iterIcEEE11_M_overflowEv: # @_ZNSt8__format10_Iter_sinkIcNS_10_Sink_iterIcEEE11_M_overflowEv
	.cfi_startproc
# %bb.0:
	pushq	%rbp
	.cfi_def_cfa_offset 16
	.cfi_offset %rbp, -16
	movq	%rsp, %rbp
	.cfi_def_cfa_register %rbp
	subq	$208, %rsp
	movq	%rdi, -56(%rbp)
	movq	-56(%rbp), %rax
	movq	%rax, -168(%rbp)                # 8-byte Spill
	movq	%rax, -40(%rbp)
	movq	-40(%rbp), %rax
	movq	%rax, %rdi
	addq	$8, %rdi
	movq	%rdi, -176(%rbp)                # 8-byte Spill
	addq	$24, %rax
	movq	%rax, -184(%rbp)                # 8-byte Spill
	callq	_ZNKSt4spanIcLm18446744073709551615EE5beginEv
	movq	-184(%rbp), %rdi                # 8-byte Reload
	movq	%rax, -48(%rbp)
	leaq	-48(%rbp), %rsi
	callq	_ZN9__gnu_cxxmiIPcSt4spanIcLm18446744073709551615EEEENS_17__normal_iteratorIT_T0_E15difference_typeERKS7_SA_
	movq	-176(%rbp), %rdi                # 8-byte Reload
	movq	%rax, %rsi
	callq	_ZNKSt4spanIcLm18446744073709551615EE5firstEm
	movq	%rax, %rcx
	movq	-168(%rbp), %rax                # 8-byte Reload
	movq	%rcx, -32(%rbp)
	movq	%rdx, -24(%rbp)
	movq	-32(%rbp), %rdx
	movq	-24(%rbp), %rcx
	movq	%rdx, -72(%rbp)
	movq	%rcx, -64(%rbp)
	cmpq	$0, 296(%rax)
	jge	.LBB99_2
# %bb.1:
	movq	-168(%rbp), %rax                # 8-byte Reload
	movq	288(%rax), %rax
	movq	%rax, -96(%rbp)
	movq	-96(%rbp), %rdx
	leaq	_ZNSt6ranges4copyE(%rip), %rdi
	leaq	-72(%rbp), %rsi
	callq	_ZNKSt6ranges9__copy_fnclITkNS_11input_rangeERSt4spanIcLm18446744073709551615EETkSt20weakly_incrementableNSt8__format10_Sink_iterIcEEQ19indirectly_copyableIDTclsr6ranges8__accessE7__beginclsr3stdE7declvalIRT_EEEET0_EEENS_13in_out_resultINSt13__conditionalIX14borrowed_rangeIS8_EEE4typeISA_NS_8danglingEEESB_EEOS8_SB_
	movq	%rax, %rcx
	movq	-168(%rbp), %rax                # 8-byte Reload
	movq	%rcx, -88(%rbp)
	movq	%rdx, -80(%rbp)
	movq	-80(%rbp), %rcx
	movq	%rcx, 288(%rax)
	jmp	.LBB99_8
.LBB99_2:
	movq	-168(%rbp), %rcx                # 8-byte Reload
	movq	304(%rcx), %rax
	cmpq	296(%rcx), %rax
	jae	.LBB99_7
# %bb.3:
	movq	-168(%rbp), %rcx                # 8-byte Reload
	movq	296(%rcx), %rax
	subq	304(%rcx), %rax
	movq	%rax, -104(%rbp)
	leaq	-120(%rbp), %rdi
	callq	_ZNSt4spanIcLm18446744073709551615EEC2EvQooeqT0_L_ZSt14dynamic_extentEeqT0_Li0E
	movq	-104(%rbp), %rax
	movq	%rax, -192(%rbp)                # 8-byte Spill
	leaq	-72(%rbp), %rdi
	callq	_ZNKSt4spanIcLm18446744073709551615EE4sizeEv
	movq	%rax, %rcx
	movq	-192(%rbp), %rax                # 8-byte Reload
	cmpq	%rcx, %rax
	jae	.LBB99_5
# %bb.4:
	movq	-104(%rbp), %rsi
	leaq	-72(%rbp), %rdi
	callq	_ZNKSt4spanIcLm18446744073709551615EE5firstEm
	movq	%rax, -136(%rbp)
	movq	%rdx, -128(%rbp)
	movq	-136(%rbp), %rax
	movq	%rax, -120(%rbp)
	movq	-128(%rbp), %rax
	movq	%rax, -112(%rbp)
	jmp	.LBB99_6
.LBB99_5:
	movq	-72(%rbp), %rax
	movq	%rax, -120(%rbp)
	movq	-64(%rbp), %rax
	movq	%rax, -112(%rbp)
.LBB99_6:
	movq	-168(%rbp), %rax                # 8-byte Reload
	movq	288(%rax), %rax
	movq	%rax, -160(%rbp)
	movq	-160(%rbp), %rdx
	leaq	_ZNSt6ranges4copyE(%rip), %rdi
	leaq	-120(%rbp), %rsi
	callq	_ZNKSt6ranges9__copy_fnclITkNS_11input_rangeERSt4spanIcLm18446744073709551615EETkSt20weakly_incrementableNSt8__format10_Sink_iterIcEEQ19indirectly_copyableIDTclsr6ranges8__accessE7__beginclsr3stdE7declvalIRT_EEEET0_EEENS_13in_out_resultINSt13__conditionalIX14borrowed_rangeIS8_EEE4typeISA_NS_8danglingEEESB_EEOS8_SB_
	movq	%rax, %rcx
	movq	-168(%rbp), %rax                # 8-byte Reload
	movq	%rcx, -152(%rbp)
	movq	%rdx, -144(%rbp)
	movq	-144(%rbp), %rcx
	movq	%rcx, 288(%rax)
.LBB99_7:
	jmp	.LBB99_8
.LBB99_8:
	movq	-168(%rbp), %rax                # 8-byte Reload
	movq	%rax, -8(%rbp)
	movq	-8(%rbp), %rdi
	movq	%rdi, -200(%rbp)                # 8-byte Spill
	addq	$8, %rdi
	callq	_ZNKSt4spanIcLm18446744073709551615EE5beginEv
	movq	%rax, %rcx
	movq	-200(%rbp), %rax                # 8-byte Reload
	movq	%rcx, -16(%rbp)
	movq	-16(%rbp), %rcx
	movq	%rcx, 24(%rax)
	leaq	-72(%rbp), %rdi
	callq	_ZNKSt4spanIcLm18446744073709551615EE4sizeEv
	movq	%rax, %rcx
	movq	-168(%rbp), %rax                # 8-byte Reload
	addq	304(%rax), %rcx
	movq	%rcx, 304(%rax)
	addq	$208, %rsp
	popq	%rbp
	.cfi_def_cfa %rsp, 8
	retq
.Lfunc_end99:
	.size	_ZNSt8__format10_Iter_sinkIcNS_10_Sink_iterIcEEE11_M_overflowEv, .Lfunc_end99-_ZNSt8__format10_Iter_sinkIcNS_10_Sink_iterIcEEE11_M_overflowEv
	.cfi_endproc
                                        # -- End function
	.section	.text._ZNKSt6ranges9__copy_fnclITkNS_11input_rangeERSt4spanIcLm18446744073709551615EETkSt20weakly_incrementableNSt8__format10_Sink_iterIcEEQ19indirectly_copyableIDTclsr6ranges8__accessE7__beginclsr3stdE7declvalIRT_EEEET0_EEENS_13in_out_resultINSt13__conditionalIX14borrowed_rangeIS8_EEE4typeISA_NS_8danglingEEESB_EEOS8_SB_,"axG",@progbits,_ZNKSt6ranges9__copy_fnclITkNS_11input_rangeERSt4spanIcLm18446744073709551615EETkSt20weakly_incrementableNSt8__format10_Sink_iterIcEEQ19indirectly_copyableIDTclsr6ranges8__accessE7__beginclsr3stdE7declvalIRT_EEEET0_EEENS_13in_out_resultINSt13__conditionalIX14borrowed_rangeIS8_EEE4typeISA_NS_8danglingEEESB_EEOS8_SB_,comdat
	.weak	_ZNKSt6ranges9__copy_fnclITkNS_11input_rangeERSt4spanIcLm18446744073709551615EETkSt20weakly_incrementableNSt8__format10_Sink_iterIcEEQ19indirectly_copyableIDTclsr6ranges8__accessE7__beginclsr3stdE7declvalIRT_EEEET0_EEENS_13in_out_resultINSt13__conditionalIX14borrowed_rangeIS8_EEE4typeISA_NS_8danglingEEESB_EEOS8_SB_ # -- Begin function _ZNKSt6ranges9__copy_fnclITkNS_11input_rangeERSt4spanIcLm18446744073709551615EETkSt20weakly_incrementableNSt8__format10_Sink_iterIcEEQ19indirectly_copyableIDTclsr6ranges8__accessE7__beginclsr3stdE7declvalIRT_EEEET0_EEENS_13in_out_resultINSt13__conditionalIX14borrowed_rangeIS8_EEE4typeISA_NS_8danglingEEESB_EEOS8_SB_
	.p2align	4, 0x90
	.type	_ZNKSt6ranges9__copy_fnclITkNS_11input_rangeERSt4spanIcLm18446744073709551615EETkSt20weakly_incrementableNSt8__format10_Sink_iterIcEEQ19indirectly_copyableIDTclsr6ranges8__accessE7__beginclsr3stdE7declvalIRT_EEEET0_EEENS_13in_out_resultINSt13__conditionalIX14borrowed_rangeIS8_EEE4typeISA_NS_8danglingEEESB_EEOS8_SB_,@function
_ZNKSt6ranges9__copy_fnclITkNS_11input_rangeERSt4spanIcLm18446744073709551615EETkSt20weakly_incrementableNSt8__format10_Sink_iterIcEEQ19indirectly_copyableIDTclsr6ranges8__accessE7__beginclsr3stdE7declvalIRT_EEEET0_EEENS_13in_out_resultINSt13__conditionalIX14borrowed_rangeIS8_EEE4typeISA_NS_8danglingEEESB_EEOS8_SB_: # @_ZNKSt6ranges9__copy_fnclITkNS_11input_rangeERSt4spanIcLm18446744073709551615EETkSt20weakly_incrementableNSt8__format10_Sink_iterIcEEQ19indirectly_copyableIDTclsr6ranges8__accessE7__beginclsr3stdE7declvalIRT_EEEET0_EEENS_13in_out_resultINSt13__conditionalIX14borrowed_rangeIS8_EEE4typeISA_NS_8danglingEEESB_EEOS8_SB_
	.cfi_startproc
# %bb.0:
	pushq	%rbp
	.cfi_def_cfa_offset 16
	.cfi_offset %rbp, -16
	movq	%rsp, %rbp
	.cfi_def_cfa_register %rbp
	subq	$80, %rsp
	movq	%rdx, -24(%rbp)
	movq	%rdi, -32(%rbp)
	movq	%rsi, -40(%rbp)
	movq	-32(%rbp), %rax
	movq	%rax, -72(%rbp)                 # 8-byte Spill
	movq	-40(%rbp), %rsi
	leaq	_ZNSt6ranges4_Cpo5beginE(%rip), %rdi
	callq	_ZNKSt6ranges8__access6_BeginclITkNS_8__detail22__maybe_borrowed_rangeERSt4spanIcLm18446744073709551615EEQoooo10is_array_vINSt16remove_referenceIT_E4typeEE14__member_beginIS8_E11__adl_beginIS8_EEEDaOS8_
	movq	%rax, -48(%rbp)
	movq	-40(%rbp), %rsi
	leaq	_ZNSt6ranges4_Cpo3endE(%rip), %rdi
	callq	_ZNKSt6ranges8__access4_EndclITkNS_8__detail22__maybe_borrowed_rangeERSt4spanIcLm18446744073709551615EEQoooo18is_bounded_array_vINSt16remove_referenceIT_E4typeEE12__member_endIS8_E9__adl_endIS8_EEEDaOS8_
	movq	-72(%rbp), %rdi                 # 8-byte Reload
	movq	%rax, -56(%rbp)
	movq	-24(%rbp), %rax
	movq	%rax, -64(%rbp)
	movq	-48(%rbp), %rsi
	movq	-56(%rbp), %rdx
	movq	-64(%rbp), %rcx
	callq	_ZNKSt6ranges9__copy_fnclITkSt14input_iteratorN9__gnu_cxx17__normal_iteratorIPcSt4spanIcLm18446744073709551615EEEETkSt12sentinel_forIT_ES7_TkSt20weakly_incrementableNSt8__format10_Sink_iterIcEEQ19indirectly_copyableIS9_T1_EEENS_13in_out_resultIS9_SD_EES9_T0_SD_
	movq	%rax, -16(%rbp)
	movq	%rdx, -8(%rbp)
	movq	-16(%rbp), %rax
	movq	-8(%rbp), %rdx
	addq	$80, %rsp
	popq	%rbp
	.cfi_def_cfa %rsp, 8
	retq
.Lfunc_end100:
	.size	_ZNKSt6ranges9__copy_fnclITkNS_11input_rangeERSt4spanIcLm18446744073709551615EETkSt20weakly_incrementableNSt8__format10_Sink_iterIcEEQ19indirectly_copyableIDTclsr6ranges8__accessE7__beginclsr3stdE7declvalIRT_EEEET0_EEENS_13in_out_resultINSt13__conditionalIX14borrowed_rangeIS8_EEE4typeISA_NS_8danglingEEESB_EEOS8_SB_, .Lfunc_end100-_ZNKSt6ranges9__copy_fnclITkNS_11input_rangeERSt4spanIcLm18446744073709551615EETkSt20weakly_incrementableNSt8__format10_Sink_iterIcEEQ19indirectly_copyableIDTclsr6ranges8__accessE7__beginclsr3stdE7declvalIRT_EEEET0_EEENS_13in_out_resultINSt13__conditionalIX14borrowed_rangeIS8_EEE4typeISA_NS_8danglingEEESB_EEOS8_SB_
	.cfi_endproc
                                        # -- End function
	.section	.text._ZNSt4spanIcLm18446744073709551615EEC2EvQooeqT0_L_ZSt14dynamic_extentEeqT0_Li0E,"axG",@progbits,_ZNSt4spanIcLm18446744073709551615EEC2EvQooeqT0_L_ZSt14dynamic_extentEeqT0_Li0E,comdat
	.weak	_ZNSt4spanIcLm18446744073709551615EEC2EvQooeqT0_L_ZSt14dynamic_extentEeqT0_Li0E # -- Begin function _ZNSt4spanIcLm18446744073709551615EEC2EvQooeqT0_L_ZSt14dynamic_extentEeqT0_Li0E
	.p2align	4, 0x90
	.type	_ZNSt4spanIcLm18446744073709551615EEC2EvQooeqT0_L_ZSt14dynamic_extentEeqT0_Li0E,@function
_ZNSt4spanIcLm18446744073709551615EEC2EvQooeqT0_L_ZSt14dynamic_extentEeqT0_Li0E: # @_ZNSt4spanIcLm18446744073709551615EEC2EvQooeqT0_L_ZSt14dynamic_extentEeqT0_Li0E
	.cfi_startproc
# %bb.0:
	pushq	%rbp
	.cfi_def_cfa_offset 16
	.cfi_offset %rbp, -16
	movq	%rsp, %rbp
	.cfi_def_cfa_register %rbp
	subq	$16, %rsp
	movq	%rdi, -8(%rbp)
	movq	-8(%rbp), %rdi
	movq	$0, (%rdi)
	addq	$8, %rdi
	xorl	%eax, %eax
	movl	%eax, %esi
	callq	_ZNSt8__detail16__extent_storageILm18446744073709551615EEC2Em
	addq	$16, %rsp
	popq	%rbp
	.cfi_def_cfa %rsp, 8
	retq
.Lfunc_end101:
	.size	_ZNSt4spanIcLm18446744073709551615EEC2EvQooeqT0_L_ZSt14dynamic_extentEeqT0_Li0E, .Lfunc_end101-_ZNSt4spanIcLm18446744073709551615EEC2EvQooeqT0_L_ZSt14dynamic_extentEeqT0_Li0E
	.cfi_endproc
                                        # -- End function
	.section	.text._ZNKSt6ranges9__copy_fnclITkSt14input_iteratorN9__gnu_cxx17__normal_iteratorIPcSt4spanIcLm18446744073709551615EEEETkSt12sentinel_forIT_ES7_TkSt20weakly_incrementableNSt8__format10_Sink_iterIcEEQ19indirectly_copyableIS9_T1_EEENS_13in_out_resultIS9_SD_EES9_T0_SD_,"axG",@progbits,_ZNKSt6ranges9__copy_fnclITkSt14input_iteratorN9__gnu_cxx17__normal_iteratorIPcSt4spanIcLm18446744073709551615EEEETkSt12sentinel_forIT_ES7_TkSt20weakly_incrementableNSt8__format10_Sink_iterIcEEQ19indirectly_copyableIS9_T1_EEENS_13in_out_resultIS9_SD_EES9_T0_SD_,comdat
	.weak	_ZNKSt6ranges9__copy_fnclITkSt14input_iteratorN9__gnu_cxx17__normal_iteratorIPcSt4spanIcLm18446744073709551615EEEETkSt12sentinel_forIT_ES7_TkSt20weakly_incrementableNSt8__format10_Sink_iterIcEEQ19indirectly_copyableIS9_T1_EEENS_13in_out_resultIS9_SD_EES9_T0_SD_ # -- Begin function _ZNKSt6ranges9__copy_fnclITkSt14input_iteratorN9__gnu_cxx17__normal_iteratorIPcSt4spanIcLm18446744073709551615EEEETkSt12sentinel_forIT_ES7_TkSt20weakly_incrementableNSt8__format10_Sink_iterIcEEQ19indirectly_copyableIS9_T1_EEENS_13in_out_resultIS9_SD_EES9_T0_SD_
	.p2align	4, 0x90
	.type	_ZNKSt6ranges9__copy_fnclITkSt14input_iteratorN9__gnu_cxx17__normal_iteratorIPcSt4spanIcLm18446744073709551615EEEETkSt12sentinel_forIT_ES7_TkSt20weakly_incrementableNSt8__format10_Sink_iterIcEEQ19indirectly_copyableIS9_T1_EEENS_13in_out_resultIS9_SD_EES9_T0_SD_,@function
_ZNKSt6ranges9__copy_fnclITkSt14input_iteratorN9__gnu_cxx17__normal_iteratorIPcSt4spanIcLm18446744073709551615EEEETkSt12sentinel_forIT_ES7_TkSt20weakly_incrementableNSt8__format10_Sink_iterIcEEQ19indirectly_copyableIS9_T1_EEENS_13in_out_resultIS9_SD_EES9_T0_SD_: # @_ZNKSt6ranges9__copy_fnclITkSt14input_iteratorN9__gnu_cxx17__normal_iteratorIPcSt4spanIcLm18446744073709551615EEEETkSt12sentinel_forIT_ES7_TkSt20weakly_incrementableNSt8__format10_Sink_iterIcEEQ19indirectly_copyableIS9_T1_EEENS_13in_out_resultIS9_SD_EES9_T0_SD_
	.cfi_startproc
# %bb.0:
	pushq	%rbp
	.cfi_def_cfa_offset 16
	.cfi_offset %rbp, -16
	movq	%rsp, %rbp
	.cfi_def_cfa_register %rbp
	subq	$80, %rsp
	movq	%rsi, -24(%rbp)
	movq	%rdx, -32(%rbp)
	movq	%rcx, -40(%rbp)
	movq	%rdi, -48(%rbp)
	movq	-24(%rbp), %rax
	movq	%rax, -56(%rbp)
	movq	-32(%rbp), %rax
	movq	%rax, -64(%rbp)
	movq	-40(%rbp), %rax
	movq	%rax, -72(%rbp)
	movq	-56(%rbp), %rdi
	movq	-64(%rbp), %rsi
	movq	-72(%rbp), %rdx
	callq	_ZNSt6ranges14__copy_or_moveILb0ETkSt14input_iteratorN9__gnu_cxx17__normal_iteratorIPcSt4spanIcLm18446744073709551615EEEETkSt12sentinel_forIT0_ES6_TkSt20weakly_incrementableNSt8__format10_Sink_iterIcEEQquT_18indirectly_movableIS8_T2_E19indirectly_copyableIS8_SC_EEENSt13__conditionalIXT_EE4typeINS_13in_out_resultIS8_SC_EESH_EES8_T1_SC_
	movq	%rax, -16(%rbp)
	movq	%rdx, -8(%rbp)
	movq	-16(%rbp), %rax
	movq	-8(%rbp), %rdx
	addq	$80, %rsp
	popq	%rbp
	.cfi_def_cfa %rsp, 8
	retq
.Lfunc_end102:
	.size	_ZNKSt6ranges9__copy_fnclITkSt14input_iteratorN9__gnu_cxx17__normal_iteratorIPcSt4spanIcLm18446744073709551615EEEETkSt12sentinel_forIT_ES7_TkSt20weakly_incrementableNSt8__format10_Sink_iterIcEEQ19indirectly_copyableIS9_T1_EEENS_13in_out_resultIS9_SD_EES9_T0_SD_, .Lfunc_end102-_ZNKSt6ranges9__copy_fnclITkSt14input_iteratorN9__gnu_cxx17__normal_iteratorIPcSt4spanIcLm18446744073709551615EEEETkSt12sentinel_forIT_ES7_TkSt20weakly_incrementableNSt8__format10_Sink_iterIcEEQ19indirectly_copyableIS9_T1_EEENS_13in_out_resultIS9_SD_EES9_T0_SD_
	.cfi_endproc
                                        # -- End function
	.section	.text._ZNKSt6ranges8__access6_BeginclITkNS_8__detail22__maybe_borrowed_rangeERSt4spanIcLm18446744073709551615EEQoooo10is_array_vINSt16remove_referenceIT_E4typeEE14__member_beginIS8_E11__adl_beginIS8_EEEDaOS8_,"axG",@progbits,_ZNKSt6ranges8__access6_BeginclITkNS_8__detail22__maybe_borrowed_rangeERSt4spanIcLm18446744073709551615EEQoooo10is_array_vINSt16remove_referenceIT_E4typeEE14__member_beginIS8_E11__adl_beginIS8_EEEDaOS8_,comdat
	.weak	_ZNKSt6ranges8__access6_BeginclITkNS_8__detail22__maybe_borrowed_rangeERSt4spanIcLm18446744073709551615EEQoooo10is_array_vINSt16remove_referenceIT_E4typeEE14__member_beginIS8_E11__adl_beginIS8_EEEDaOS8_ # -- Begin function _ZNKSt6ranges8__access6_BeginclITkNS_8__detail22__maybe_borrowed_rangeERSt4spanIcLm18446744073709551615EEQoooo10is_array_vINSt16remove_referenceIT_E4typeEE14__member_beginIS8_E11__adl_beginIS8_EEEDaOS8_
	.p2align	4, 0x90
	.type	_ZNKSt6ranges8__access6_BeginclITkNS_8__detail22__maybe_borrowed_rangeERSt4spanIcLm18446744073709551615EEQoooo10is_array_vINSt16remove_referenceIT_E4typeEE14__member_beginIS8_E11__adl_beginIS8_EEEDaOS8_,@function
_ZNKSt6ranges8__access6_BeginclITkNS_8__detail22__maybe_borrowed_rangeERSt4spanIcLm18446744073709551615EEQoooo10is_array_vINSt16remove_referenceIT_E4typeEE14__member_beginIS8_E11__adl_beginIS8_EEEDaOS8_: # @_ZNKSt6ranges8__access6_BeginclITkNS_8__detail22__maybe_borrowed_rangeERSt4spanIcLm18446744073709551615EEQoooo10is_array_vINSt16remove_referenceIT_E4typeEE14__member_beginIS8_E11__adl_beginIS8_EEEDaOS8_
	.cfi_startproc
# %bb.0:
	pushq	%rbp
	.cfi_def_cfa_offset 16
	.cfi_offset %rbp, -16
	movq	%rsp, %rbp
	.cfi_def_cfa_register %rbp
	subq	$32, %rsp
	movq	%rdi, -16(%rbp)
	movq	%rsi, -24(%rbp)
	movq	-24(%rbp), %rdi
	callq	_ZNKSt4spanIcLm18446744073709551615EE5beginEv
	movq	%rax, -8(%rbp)
	movq	-8(%rbp), %rax
	addq	$32, %rsp
	popq	%rbp
	.cfi_def_cfa %rsp, 8
	retq
.Lfunc_end103:
	.size	_ZNKSt6ranges8__access6_BeginclITkNS_8__detail22__maybe_borrowed_rangeERSt4spanIcLm18446744073709551615EEQoooo10is_array_vINSt16remove_referenceIT_E4typeEE14__member_beginIS8_E11__adl_beginIS8_EEEDaOS8_, .Lfunc_end103-_ZNKSt6ranges8__access6_BeginclITkNS_8__detail22__maybe_borrowed_rangeERSt4spanIcLm18446744073709551615EEQoooo10is_array_vINSt16remove_referenceIT_E4typeEE14__member_beginIS8_E11__adl_beginIS8_EEEDaOS8_
	.cfi_endproc
                                        # -- End function
	.section	.text._ZNKSt6ranges8__access4_EndclITkNS_8__detail22__maybe_borrowed_rangeERSt4spanIcLm18446744073709551615EEQoooo18is_bounded_array_vINSt16remove_referenceIT_E4typeEE12__member_endIS8_E9__adl_endIS8_EEEDaOS8_,"axG",@progbits,_ZNKSt6ranges8__access4_EndclITkNS_8__detail22__maybe_borrowed_rangeERSt4spanIcLm18446744073709551615EEQoooo18is_bounded_array_vINSt16remove_referenceIT_E4typeEE12__member_endIS8_E9__adl_endIS8_EEEDaOS8_,comdat
	.weak	_ZNKSt6ranges8__access4_EndclITkNS_8__detail22__maybe_borrowed_rangeERSt4spanIcLm18446744073709551615EEQoooo18is_bounded_array_vINSt16remove_referenceIT_E4typeEE12__member_endIS8_E9__adl_endIS8_EEEDaOS8_ # -- Begin function _ZNKSt6ranges8__access4_EndclITkNS_8__detail22__maybe_borrowed_rangeERSt4spanIcLm18446744073709551615EEQoooo18is_bounded_array_vINSt16remove_referenceIT_E4typeEE12__member_endIS8_E9__adl_endIS8_EEEDaOS8_
	.p2align	4, 0x90
	.type	_ZNKSt6ranges8__access4_EndclITkNS_8__detail22__maybe_borrowed_rangeERSt4spanIcLm18446744073709551615EEQoooo18is_bounded_array_vINSt16remove_referenceIT_E4typeEE12__member_endIS8_E9__adl_endIS8_EEEDaOS8_,@function
_ZNKSt6ranges8__access4_EndclITkNS_8__detail22__maybe_borrowed_rangeERSt4spanIcLm18446744073709551615EEQoooo18is_bounded_array_vINSt16remove_referenceIT_E4typeEE12__member_endIS8_E9__adl_endIS8_EEEDaOS8_: # @_ZNKSt6ranges8__access4_EndclITkNS_8__detail22__maybe_borrowed_rangeERSt4spanIcLm18446744073709551615EEQoooo18is_bounded_array_vINSt16remove_referenceIT_E4typeEE12__member_endIS8_E9__adl_endIS8_EEEDaOS8_
	.cfi_startproc
# %bb.0:
	pushq	%rbp
	.cfi_def_cfa_offset 16
	.cfi_offset %rbp, -16
	movq	%rsp, %rbp
	.cfi_def_cfa_register %rbp
	subq	$32, %rsp
	movq	%rdi, -16(%rbp)
	movq	%rsi, -24(%rbp)
	movq	-24(%rbp), %rdi
	callq	_ZNKSt4spanIcLm18446744073709551615EE3endEv
	movq	%rax, -8(%rbp)
	movq	-8(%rbp), %rax
	addq	$32, %rsp
	popq	%rbp
	.cfi_def_cfa %rsp, 8
	retq
.Lfunc_end104:
	.size	_ZNKSt6ranges8__access4_EndclITkNS_8__detail22__maybe_borrowed_rangeERSt4spanIcLm18446744073709551615EEQoooo18is_bounded_array_vINSt16remove_referenceIT_E4typeEE12__member_endIS8_E9__adl_endIS8_EEEDaOS8_, .Lfunc_end104-_ZNKSt6ranges8__access4_EndclITkNS_8__detail22__maybe_borrowed_rangeERSt4spanIcLm18446744073709551615EEQoooo18is_bounded_array_vINSt16remove_referenceIT_E4typeEE12__member_endIS8_E9__adl_endIS8_EEEDaOS8_
	.cfi_endproc
                                        # -- End function
	.section	.text._ZNSt6ranges14__copy_or_moveILb0ETkSt14input_iteratorN9__gnu_cxx17__normal_iteratorIPcSt4spanIcLm18446744073709551615EEEETkSt12sentinel_forIT0_ES6_TkSt20weakly_incrementableNSt8__format10_Sink_iterIcEEQquT_18indirectly_movableIS8_T2_E19indirectly_copyableIS8_SC_EEENSt13__conditionalIXT_EE4typeINS_13in_out_resultIS8_SC_EESH_EES8_T1_SC_,"axG",@progbits,_ZNSt6ranges14__copy_or_moveILb0ETkSt14input_iteratorN9__gnu_cxx17__normal_iteratorIPcSt4spanIcLm18446744073709551615EEEETkSt12sentinel_forIT0_ES6_TkSt20weakly_incrementableNSt8__format10_Sink_iterIcEEQquT_18indirectly_movableIS8_T2_E19indirectly_copyableIS8_SC_EEENSt13__conditionalIXT_EE4typeINS_13in_out_resultIS8_SC_EESH_EES8_T1_SC_,comdat
	.weak	_ZNSt6ranges14__copy_or_moveILb0ETkSt14input_iteratorN9__gnu_cxx17__normal_iteratorIPcSt4spanIcLm18446744073709551615EEEETkSt12sentinel_forIT0_ES6_TkSt20weakly_incrementableNSt8__format10_Sink_iterIcEEQquT_18indirectly_movableIS8_T2_E19indirectly_copyableIS8_SC_EEENSt13__conditionalIXT_EE4typeINS_13in_out_resultIS8_SC_EESH_EES8_T1_SC_ # -- Begin function _ZNSt6ranges14__copy_or_moveILb0ETkSt14input_iteratorN9__gnu_cxx17__normal_iteratorIPcSt4spanIcLm18446744073709551615EEEETkSt12sentinel_forIT0_ES6_TkSt20weakly_incrementableNSt8__format10_Sink_iterIcEEQquT_18indirectly_movableIS8_T2_E19indirectly_copyableIS8_SC_EEENSt13__conditionalIXT_EE4typeINS_13in_out_resultIS8_SC_EESH_EES8_T1_SC_
	.p2align	4, 0x90
	.type	_ZNSt6ranges14__copy_or_moveILb0ETkSt14input_iteratorN9__gnu_cxx17__normal_iteratorIPcSt4spanIcLm18446744073709551615EEEETkSt12sentinel_forIT0_ES6_TkSt20weakly_incrementableNSt8__format10_Sink_iterIcEEQquT_18indirectly_movableIS8_T2_E19indirectly_copyableIS8_SC_EEENSt13__conditionalIXT_EE4typeINS_13in_out_resultIS8_SC_EESH_EES8_T1_SC_,@function
_ZNSt6ranges14__copy_or_moveILb0ETkSt14input_iteratorN9__gnu_cxx17__normal_iteratorIPcSt4spanIcLm18446744073709551615EEEETkSt12sentinel_forIT0_ES6_TkSt20weakly_incrementableNSt8__format10_Sink_iterIcEEQquT_18indirectly_movableIS8_T2_E19indirectly_copyableIS8_SC_EEENSt13__conditionalIXT_EE4typeINS_13in_out_resultIS8_SC_EESH_EES8_T1_SC_: # @_ZNSt6ranges14__copy_or_moveILb0ETkSt14input_iteratorN9__gnu_cxx17__normal_iteratorIPcSt4spanIcLm18446744073709551615EEEETkSt12sentinel_forIT0_ES6_TkSt20weakly_incrementableNSt8__format10_Sink_iterIcEEQquT_18indirectly_movableIS8_T2_E19indirectly_copyableIS8_SC_EEENSt13__conditionalIXT_EE4typeINS_13in_out_resultIS8_SC_EESH_EES8_T1_SC_
	.cfi_startproc
# %bb.0:
	pushq	%rbp
	.cfi_def_cfa_offset 16
	.cfi_offset %rbp, -16
	movq	%rsp, %rbp
	.cfi_def_cfa_register %rbp
	subq	$80, %rsp
	movq	%rdi, -24(%rbp)
	movq	%rsi, -32(%rbp)
	movq	%rdx, -40(%rbp)
	leaq	-24(%rbp), %rdi
	callq	_ZNK9__gnu_cxx17__normal_iteratorIPcSt4spanIcLm18446744073709551615EEE4baseEv
	movq	(%rax), %rax
	movq	%rax, -72(%rbp)                 # 8-byte Spill
	leaq	-32(%rbp), %rdi
	callq	_ZNK9__gnu_cxx17__normal_iteratorIPcSt4spanIcLm18446744073709551615EEE4baseEv
	movq	-72(%rbp), %rdi                 # 8-byte Reload
	movq	(%rax), %rsi
	movq	-40(%rbp), %rax
	movq	%rax, -64(%rbp)
	movq	-64(%rbp), %rdx
	callq	_ZNSt6ranges14__copy_or_moveILb0ETkSt14input_iteratorPcTkSt12sentinel_forIT0_ES1_TkSt20weakly_incrementableNSt8__format10_Sink_iterIcEEQquT_18indirectly_movableIS3_T2_E19indirectly_copyableIS3_S7_EEENSt13__conditionalIXT_EE4typeINS_13in_out_resultIS3_S7_EESC_EES3_T1_S7_
	movq	%rax, -56(%rbp)
	movq	%rdx, -48(%rbp)
	leaq	-16(%rbp), %rdi
	leaq	-56(%rbp), %rsi
	callq	_ZN9__gnu_cxx17__normal_iteratorIPcSt4spanIcLm18446744073709551615EEEC2ERKS1_
	movq	-48(%rbp), %rax
	movq	%rax, -8(%rbp)
	movq	-16(%rbp), %rax
	movq	-8(%rbp), %rdx
	addq	$80, %rsp
	popq	%rbp
	.cfi_def_cfa %rsp, 8
	retq
.Lfunc_end105:
	.size	_ZNSt6ranges14__copy_or_moveILb0ETkSt14input_iteratorN9__gnu_cxx17__normal_iteratorIPcSt4spanIcLm18446744073709551615EEEETkSt12sentinel_forIT0_ES6_TkSt20weakly_incrementableNSt8__format10_Sink_iterIcEEQquT_18indirectly_movableIS8_T2_E19indirectly_copyableIS8_SC_EEENSt13__conditionalIXT_EE4typeINS_13in_out_resultIS8_SC_EESH_EES8_T1_SC_, .Lfunc_end105-_ZNSt6ranges14__copy_or_moveILb0ETkSt14input_iteratorN9__gnu_cxx17__normal_iteratorIPcSt4spanIcLm18446744073709551615EEEETkSt12sentinel_forIT0_ES6_TkSt20weakly_incrementableNSt8__format10_Sink_iterIcEEQquT_18indirectly_movableIS8_T2_E19indirectly_copyableIS8_SC_EEENSt13__conditionalIXT_EE4typeINS_13in_out_resultIS8_SC_EESH_EES8_T1_SC_
	.cfi_endproc
                                        # -- End function
	.section	.text._ZNSt6ranges14__copy_or_moveILb0ETkSt14input_iteratorPcTkSt12sentinel_forIT0_ES1_TkSt20weakly_incrementableNSt8__format10_Sink_iterIcEEQquT_18indirectly_movableIS3_T2_E19indirectly_copyableIS3_S7_EEENSt13__conditionalIXT_EE4typeINS_13in_out_resultIS3_S7_EESC_EES3_T1_S7_,"axG",@progbits,_ZNSt6ranges14__copy_or_moveILb0ETkSt14input_iteratorPcTkSt12sentinel_forIT0_ES1_TkSt20weakly_incrementableNSt8__format10_Sink_iterIcEEQquT_18indirectly_movableIS3_T2_E19indirectly_copyableIS3_S7_EEENSt13__conditionalIXT_EE4typeINS_13in_out_resultIS3_S7_EESC_EES3_T1_S7_,comdat
	.weak	_ZNSt6ranges14__copy_or_moveILb0ETkSt14input_iteratorPcTkSt12sentinel_forIT0_ES1_TkSt20weakly_incrementableNSt8__format10_Sink_iterIcEEQquT_18indirectly_movableIS3_T2_E19indirectly_copyableIS3_S7_EEENSt13__conditionalIXT_EE4typeINS_13in_out_resultIS3_S7_EESC_EES3_T1_S7_ # -- Begin function _ZNSt6ranges14__copy_or_moveILb0ETkSt14input_iteratorPcTkSt12sentinel_forIT0_ES1_TkSt20weakly_incrementableNSt8__format10_Sink_iterIcEEQquT_18indirectly_movableIS3_T2_E19indirectly_copyableIS3_S7_EEENSt13__conditionalIXT_EE4typeINS_13in_out_resultIS3_S7_EESC_EES3_T1_S7_
	.p2align	4, 0x90
	.type	_ZNSt6ranges14__copy_or_moveILb0ETkSt14input_iteratorPcTkSt12sentinel_forIT0_ES1_TkSt20weakly_incrementableNSt8__format10_Sink_iterIcEEQquT_18indirectly_movableIS3_T2_E19indirectly_copyableIS3_S7_EEENSt13__conditionalIXT_EE4typeINS_13in_out_resultIS3_S7_EESC_EES3_T1_S7_,@function
_ZNSt6ranges14__copy_or_moveILb0ETkSt14input_iteratorPcTkSt12sentinel_forIT0_ES1_TkSt20weakly_incrementableNSt8__format10_Sink_iterIcEEQquT_18indirectly_movableIS3_T2_E19indirectly_copyableIS3_S7_EEENSt13__conditionalIXT_EE4typeINS_13in_out_resultIS3_S7_EESC_EES3_T1_S7_: # @_ZNSt6ranges14__copy_or_moveILb0ETkSt14input_iteratorPcTkSt12sentinel_forIT0_ES1_TkSt20weakly_incrementableNSt8__format10_Sink_iterIcEEQquT_18indirectly_movableIS3_T2_E19indirectly_copyableIS3_S7_EEENSt13__conditionalIXT_EE4typeINS_13in_out_resultIS3_S7_EESC_EES3_T1_S7_
	.cfi_startproc
# %bb.0:
	pushq	%rbp
	.cfi_def_cfa_offset 16
	.cfi_offset %rbp, -16
	movq	%rsp, %rbp
	.cfi_def_cfa_register %rbp
	subq	$80, %rsp
	movq	%rdx, -56(%rbp)
	movq	%rdi, -64(%rbp)
	movq	%rsi, -72(%rbp)
	movq	-72(%rbp), %rax
	movq	-64(%rbp), %rcx
	subq	%rcx, %rax
	movq	%rax, -80(%rbp)
.LBB106_1:                              # =>This Inner Loop Header: Depth=1
	cmpq	$0, -80(%rbp)
	jle	.LBB106_4
# %bb.2:                                #   in Loop: Header=BB106_1 Depth=1
	movq	-64(%rbp), %rax
	movb	(%rax), %al
	leaq	-56(%rbp), %rcx
	movq	%rcx, -32(%rbp)
	movq	-32(%rbp), %rcx
	movq	%rcx, -16(%rbp)
	movb	%al, -17(%rbp)
	movq	-16(%rbp), %rax
	movq	(%rax), %rdi
	movsbl	-17(%rbp), %esi
	callq	_ZNSt8__format5_SinkIcE8_M_writeEc
	movq	-64(%rbp), %rax
	addq	$1, %rax
	movq	%rax, -64(%rbp)
	leaq	-56(%rbp), %rax
	movq	%rax, -8(%rbp)
# %bb.3:                                #   in Loop: Header=BB106_1 Depth=1
	movq	-80(%rbp), %rax
	addq	$-1, %rax
	movq	%rax, -80(%rbp)
	jmp	.LBB106_1
.LBB106_4:
	movq	-64(%rbp), %rax
	movq	%rax, -48(%rbp)
	movq	-56(%rbp), %rax
	movq	%rax, -40(%rbp)
	movq	-48(%rbp), %rax
	movq	-40(%rbp), %rdx
	addq	$80, %rsp
	popq	%rbp
	.cfi_def_cfa %rsp, 8
	retq
.Lfunc_end106:
	.size	_ZNSt6ranges14__copy_or_moveILb0ETkSt14input_iteratorPcTkSt12sentinel_forIT0_ES1_TkSt20weakly_incrementableNSt8__format10_Sink_iterIcEEQquT_18indirectly_movableIS3_T2_E19indirectly_copyableIS3_S7_EEENSt13__conditionalIXT_EE4typeINS_13in_out_resultIS3_S7_EESC_EES3_T1_S7_, .Lfunc_end106-_ZNSt6ranges14__copy_or_moveILb0ETkSt14input_iteratorPcTkSt12sentinel_forIT0_ES1_TkSt20weakly_incrementableNSt8__format10_Sink_iterIcEEQquT_18indirectly_movableIS3_T2_E19indirectly_copyableIS3_S7_EEENSt13__conditionalIXT_EE4typeINS_13in_out_resultIS3_S7_EESC_EES3_T1_S7_
	.cfi_endproc
                                        # -- End function
	.section	.text._ZNSt8__format5_SinkIcE8_M_writeEc,"axG",@progbits,_ZNSt8__format5_SinkIcE8_M_writeEc,comdat
	.weak	_ZNSt8__format5_SinkIcE8_M_writeEc # -- Begin function _ZNSt8__format5_SinkIcE8_M_writeEc
	.p2align	4, 0x90
	.type	_ZNSt8__format5_SinkIcE8_M_writeEc,@function
_ZNSt8__format5_SinkIcE8_M_writeEc:     # @_ZNSt8__format5_SinkIcE8_M_writeEc
	.cfi_startproc
# %bb.0:
	pushq	%rbp
	.cfi_def_cfa_offset 16
	.cfi_offset %rbp, -16
	movq	%rsp, %rbp
	.cfi_def_cfa_register %rbp
	subq	$80, %rsp
	movb	%sil, %al
	movq	%rdi, -16(%rbp)
	movb	%al, -17(%rbp)
	movq	-16(%rbp), %rdi
	movq	%rdi, -56(%rbp)                 # 8-byte Spill
	movb	-17(%rbp), %al
	movb	%al, -65(%rbp)                  # 1-byte Spill
	addq	$24, %rdi
	xorl	%esi, %esi
	callq	_ZN9__gnu_cxx17__normal_iteratorIPcSt4spanIcLm18446744073709551615EEEppEi
	movq	%rax, -32(%rbp)
	leaq	-32(%rbp), %rdi
	callq	_ZNK9__gnu_cxx17__normal_iteratorIPcSt4spanIcLm18446744073709551615EEEdeEv
	movb	-65(%rbp), %cl                  # 1-byte Reload
	movq	-56(%rbp), %rdi                 # 8-byte Reload
	movb	%cl, (%rax)
	movq	%rdi, %rax
	addq	$24, %rax
	movq	%rax, -64(%rbp)                 # 8-byte Spill
	addq	$8, %rdi
	callq	_ZNKSt4spanIcLm18446744073709551615EE5beginEv
	movq	-64(%rbp), %rdi                 # 8-byte Reload
	movq	%rax, -40(%rbp)
	leaq	-40(%rbp), %rsi
	callq	_ZN9__gnu_cxxmiIPcSt4spanIcLm18446744073709551615EEEENS_17__normal_iteratorIT_T0_E15difference_typeERKS7_SA_
	movq	%rax, %rcx
	movq	-56(%rbp), %rax                 # 8-byte Reload
	movq	%rcx, -48(%rbp)                 # 8-byte Spill
	addq	$8, %rax
	movq	%rax, -8(%rbp)
	movq	-8(%rbp), %rdi
	callq	_ZNKSt4spanIcLm18446744073709551615EE4sizeEv
	movq	%rax, %rcx
	movq	-48(%rbp), %rax                 # 8-byte Reload
	cmpq	%rcx, %rax
	jne	.LBB107_2
# %bb.1:
	movq	-56(%rbp), %rdi                 # 8-byte Reload
	movq	(%rdi), %rax
	callq	*(%rax)
.LBB107_2:
	addq	$80, %rsp
	popq	%rbp
	.cfi_def_cfa %rsp, 8
	retq
.Lfunc_end107:
	.size	_ZNSt8__format5_SinkIcE8_M_writeEc, .Lfunc_end107-_ZNSt8__format5_SinkIcE8_M_writeEc
	.cfi_endproc
                                        # -- End function
	.section	.text._ZN9__gnu_cxx17__normal_iteratorIPcSt4spanIcLm18446744073709551615EEEppEi,"axG",@progbits,_ZN9__gnu_cxx17__normal_iteratorIPcSt4spanIcLm18446744073709551615EEEppEi,comdat
	.weak	_ZN9__gnu_cxx17__normal_iteratorIPcSt4spanIcLm18446744073709551615EEEppEi # -- Begin function _ZN9__gnu_cxx17__normal_iteratorIPcSt4spanIcLm18446744073709551615EEEppEi
	.p2align	4, 0x90
	.type	_ZN9__gnu_cxx17__normal_iteratorIPcSt4spanIcLm18446744073709551615EEEppEi,@function
_ZN9__gnu_cxx17__normal_iteratorIPcSt4spanIcLm18446744073709551615EEEppEi: # @_ZN9__gnu_cxx17__normal_iteratorIPcSt4spanIcLm18446744073709551615EEEppEi
	.cfi_startproc
# %bb.0:
	pushq	%rbp
	.cfi_def_cfa_offset 16
	.cfi_offset %rbp, -16
	movq	%rsp, %rbp
	.cfi_def_cfa_register %rbp
	subq	$32, %rsp
	movq	%rdi, -16(%rbp)
	movl	%esi, -20(%rbp)
	movq	-16(%rbp), %rcx
	movq	(%rcx), %rax
	movq	%rax, %rdx
	addq	$1, %rdx
	movq	%rdx, (%rcx)
	movq	%rax, -32(%rbp)
	leaq	-8(%rbp), %rdi
	leaq	-32(%rbp), %rsi
	callq	_ZN9__gnu_cxx17__normal_iteratorIPcSt4spanIcLm18446744073709551615EEEC2ERKS1_
	movq	-8(%rbp), %rax
	addq	$32, %rsp
	popq	%rbp
	.cfi_def_cfa %rsp, 8
	retq
.Lfunc_end108:
	.size	_ZN9__gnu_cxx17__normal_iteratorIPcSt4spanIcLm18446744073709551615EEEppEi, .Lfunc_end108-_ZN9__gnu_cxx17__normal_iteratorIPcSt4spanIcLm18446744073709551615EEEppEi
	.cfi_endproc
                                        # -- End function
	.section	.text._ZNK9__gnu_cxx17__normal_iteratorIPcSt4spanIcLm18446744073709551615EEEdeEv,"axG",@progbits,_ZNK9__gnu_cxx17__normal_iteratorIPcSt4spanIcLm18446744073709551615EEEdeEv,comdat
	.weak	_ZNK9__gnu_cxx17__normal_iteratorIPcSt4spanIcLm18446744073709551615EEEdeEv # -- Begin function _ZNK9__gnu_cxx17__normal_iteratorIPcSt4spanIcLm18446744073709551615EEEdeEv
	.p2align	4, 0x90
	.type	_ZNK9__gnu_cxx17__normal_iteratorIPcSt4spanIcLm18446744073709551615EEEdeEv,@function
_ZNK9__gnu_cxx17__normal_iteratorIPcSt4spanIcLm18446744073709551615EEEdeEv: # @_ZNK9__gnu_cxx17__normal_iteratorIPcSt4spanIcLm18446744073709551615EEEdeEv
	.cfi_startproc
# %bb.0:
	pushq	%rbp
	.cfi_def_cfa_offset 16
	.cfi_offset %rbp, -16
	movq	%rsp, %rbp
	.cfi_def_cfa_register %rbp
	movq	%rdi, -8(%rbp)
	movq	-8(%rbp), %rax
	movq	(%rax), %rax
	popq	%rbp
	.cfi_def_cfa %rsp, 8
	retq
.Lfunc_end109:
	.size	_ZNK9__gnu_cxx17__normal_iteratorIPcSt4spanIcLm18446744073709551615EEEdeEv, .Lfunc_end109-_ZNK9__gnu_cxx17__normal_iteratorIPcSt4spanIcLm18446744073709551615EEEdeEv
	.cfi_endproc
                                        # -- End function
	.section	.text._ZNKSt4spanIcLm18446744073709551615EE3endEv,"axG",@progbits,_ZNKSt4spanIcLm18446744073709551615EE3endEv,comdat
	.weak	_ZNKSt4spanIcLm18446744073709551615EE3endEv # -- Begin function _ZNKSt4spanIcLm18446744073709551615EE3endEv
	.p2align	4, 0x90
	.type	_ZNKSt4spanIcLm18446744073709551615EE3endEv,@function
_ZNKSt4spanIcLm18446744073709551615EE3endEv: # @_ZNKSt4spanIcLm18446744073709551615EE3endEv
	.cfi_startproc
# %bb.0:
	pushq	%rbp
	.cfi_def_cfa_offset 16
	.cfi_offset %rbp, -16
	movq	%rsp, %rbp
	.cfi_def_cfa_register %rbp
	subq	$32, %rsp
	movq	%rdi, -16(%rbp)
	movq	-16(%rbp), %rdi
	movq	(%rdi), %rax
	movq	%rax, -32(%rbp)                 # 8-byte Spill
	callq	_ZNKSt4spanIcLm18446744073709551615EE4sizeEv
	movq	%rax, %rcx
	movq	-32(%rbp), %rax                 # 8-byte Reload
	addq	%rcx, %rax
	movq	%rax, -24(%rbp)
	leaq	-8(%rbp), %rdi
	leaq	-24(%rbp), %rsi
	callq	_ZN9__gnu_cxx17__normal_iteratorIPcSt4spanIcLm18446744073709551615EEEC2ERKS1_
	movq	-8(%rbp), %rax
	addq	$32, %rsp
	popq	%rbp
	.cfi_def_cfa %rsp, 8
	retq
.Lfunc_end110:
	.size	_ZNKSt4spanIcLm18446744073709551615EE3endEv, .Lfunc_end110-_ZNKSt4spanIcLm18446744073709551615EE3endEv
	.cfi_endproc
                                        # -- End function
	.section	.text._ZNSt16basic_format_argISt20basic_format_contextINSt8__format10_Sink_iterIcEEcEE8_M_visitIZNS1_15__do_vformat_toIS3_cS4_EET_S8_St17basic_string_viewIT0_St11char_traitsISA_EERKSt17basic_format_argsIT1_EPKSt6localeEUlRS8_E_EEDcOS8_NS1_6_Arg_tE,"axG",@progbits,_ZNSt16basic_format_argISt20basic_format_contextINSt8__format10_Sink_iterIcEEcEE8_M_visitIZNS1_15__do_vformat_toIS3_cS4_EET_S8_St17basic_string_viewIT0_St11char_traitsISA_EERKSt17basic_format_argsIT1_EPKSt6localeEUlRS8_E_EEDcOS8_NS1_6_Arg_tE,comdat
	.weak	_ZNSt16basic_format_argISt20basic_format_contextINSt8__format10_Sink_iterIcEEcEE8_M_visitIZNS1_15__do_vformat_toIS3_cS4_EET_S8_St17basic_string_viewIT0_St11char_traitsISA_EERKSt17basic_format_argsIT1_EPKSt6localeEUlRS8_E_EEDcOS8_NS1_6_Arg_tE # -- Begin function _ZNSt16basic_format_argISt20basic_format_contextINSt8__format10_Sink_iterIcEEcEE8_M_visitIZNS1_15__do_vformat_toIS3_cS4_EET_S8_St17basic_string_viewIT0_St11char_traitsISA_EERKSt17basic_format_argsIT1_EPKSt6localeEUlRS8_E_EEDcOS8_NS1_6_Arg_tE
	.p2align	4, 0x90
	.type	_ZNSt16basic_format_argISt20basic_format_contextINSt8__format10_Sink_iterIcEEcEE8_M_visitIZNS1_15__do_vformat_toIS3_cS4_EET_S8_St17basic_string_viewIT0_St11char_traitsISA_EERKSt17basic_format_argsIT1_EPKSt6localeEUlRS8_E_EEDcOS8_NS1_6_Arg_tE,@function
_ZNSt16basic_format_argISt20basic_format_contextINSt8__format10_Sink_iterIcEEcEE8_M_visitIZNS1_15__do_vformat_toIS3_cS4_EET_S8_St17basic_string_viewIT0_St11char_traitsISA_EERKSt17basic_format_argsIT1_EPKSt6localeEUlRS8_E_EEDcOS8_NS1_6_Arg_tE: # @_ZNSt16basic_format_argISt20basic_format_contextINSt8__format10_Sink_iterIcEEcEE8_M_visitIZNS1_15__do_vformat_toIS3_cS4_EET_S8_St17basic_string_viewIT0_St11char_traitsISA_EERKSt17basic_format_argsIT1_EPKSt6localeEUlRS8_E_EEDcOS8_NS1_6_Arg_tE
	.cfi_startproc
# %bb.0:
	pushq	%rbp
	.cfi_def_cfa_offset 16
	.cfi_offset %rbp, -16
	movq	%rsp, %rbp
	.cfi_def_cfa_register %rbp
	subq	$48, %rsp
	movb	%dl, %al
	movq	%rdi, -8(%rbp)
	movq	%rsi, -16(%rbp)
	movb	%al, -17(%rbp)
	movq	-8(%rbp), %rax
	movq	%rax, -48(%rbp)                 # 8-byte Spill
	movzbl	-17(%rbp), %eax
                                        # kill: def $rax killed $eax
	movq	%rax, -40(%rbp)                 # 8-byte Spill
# %bb.19:
	movq	-40(%rbp), %rax                 # 8-byte Reload
	leaq	.LJTI111_0(%rip), %rcx
	movslq	(%rcx,%rax,4), %rax
	addq	%rcx, %rax
	jmpq	*%rax
.LBB111_1:
	movq	-48(%rbp), %rsi                 # 8-byte Reload
	movq	-16(%rbp), %rdi
	callq	_ZZNSt8__format15__do_vformat_toINS_10_Sink_iterIcEEcSt20basic_format_contextIS2_cEEET_S5_St17basic_string_viewIT0_St11char_traitsIS7_EERKSt17basic_format_argsIT1_EPKSt6localeENKUlRS5_E_clISt9monostateEEDaSJ_
	jmp	.LBB111_18
.LBB111_2:
	movq	-48(%rbp), %rsi                 # 8-byte Reload
	movq	-16(%rbp), %rdi
	callq	_ZZNSt8__format15__do_vformat_toINS_10_Sink_iterIcEEcSt20basic_format_contextIS2_cEEET_S5_St17basic_string_viewIT0_St11char_traitsIS7_EERKSt17basic_format_argsIT1_EPKSt6localeENKUlRS5_E_clIbEEDaSJ_
	jmp	.LBB111_18
.LBB111_3:
	movq	-48(%rbp), %rsi                 # 8-byte Reload
	movq	-16(%rbp), %rdi
	callq	_ZZNSt8__format15__do_vformat_toINS_10_Sink_iterIcEEcSt20basic_format_contextIS2_cEEET_S5_St17basic_string_viewIT0_St11char_traitsIS7_EERKSt17basic_format_argsIT1_EPKSt6localeENKUlRS5_E_clIcEEDaSJ_
	jmp	.LBB111_18
.LBB111_4:
	movq	-48(%rbp), %rsi                 # 8-byte Reload
	movq	-16(%rbp), %rdi
	callq	_ZZNSt8__format15__do_vformat_toINS_10_Sink_iterIcEEcSt20basic_format_contextIS2_cEEET_S5_St17basic_string_viewIT0_St11char_traitsIS7_EERKSt17basic_format_argsIT1_EPKSt6localeENKUlRS5_E_clIiEEDaSJ_
	jmp	.LBB111_18
.LBB111_5:
	movq	-48(%rbp), %rsi                 # 8-byte Reload
	movq	-16(%rbp), %rdi
	callq	_ZZNSt8__format15__do_vformat_toINS_10_Sink_iterIcEEcSt20basic_format_contextIS2_cEEET_S5_St17basic_string_viewIT0_St11char_traitsIS7_EERKSt17basic_format_argsIT1_EPKSt6localeENKUlRS5_E_clIjEEDaSJ_
	jmp	.LBB111_18
.LBB111_6:
	movq	-48(%rbp), %rsi                 # 8-byte Reload
	movq	-16(%rbp), %rdi
	callq	_ZZNSt8__format15__do_vformat_toINS_10_Sink_iterIcEEcSt20basic_format_contextIS2_cEEET_S5_St17basic_string_viewIT0_St11char_traitsIS7_EERKSt17basic_format_argsIT1_EPKSt6localeENKUlRS5_E_clIxEEDaSJ_
	jmp	.LBB111_18
.LBB111_7:
	movq	-48(%rbp), %rsi                 # 8-byte Reload
	movq	-16(%rbp), %rdi
	callq	_ZZNSt8__format15__do_vformat_toINS_10_Sink_iterIcEEcSt20basic_format_contextIS2_cEEET_S5_St17basic_string_viewIT0_St11char_traitsIS7_EERKSt17basic_format_argsIT1_EPKSt6localeENKUlRS5_E_clIyEEDaSJ_
	jmp	.LBB111_18
.LBB111_8:
	movq	-48(%rbp), %rsi                 # 8-byte Reload
	movq	-16(%rbp), %rdi
	callq	_ZZNSt8__format15__do_vformat_toINS_10_Sink_iterIcEEcSt20basic_format_contextIS2_cEEET_S5_St17basic_string_viewIT0_St11char_traitsIS7_EERKSt17basic_format_argsIT1_EPKSt6localeENKUlRS5_E_clIfEEDaSJ_
	jmp	.LBB111_18
.LBB111_9:
	movq	-48(%rbp), %rsi                 # 8-byte Reload
	movq	-16(%rbp), %rdi
	callq	_ZZNSt8__format15__do_vformat_toINS_10_Sink_iterIcEEcSt20basic_format_contextIS2_cEEET_S5_St17basic_string_viewIT0_St11char_traitsIS7_EERKSt17basic_format_argsIT1_EPKSt6localeENKUlRS5_E_clIdEEDaSJ_
	jmp	.LBB111_18
.LBB111_10:
	movq	-48(%rbp), %rsi                 # 8-byte Reload
	movq	-16(%rbp), %rdi
	callq	_ZZNSt8__format15__do_vformat_toINS_10_Sink_iterIcEEcSt20basic_format_contextIS2_cEEET_S5_St17basic_string_viewIT0_St11char_traitsIS7_EERKSt17basic_format_argsIT1_EPKSt6localeENKUlRS5_E_clIeEEDaSJ_
	jmp	.LBB111_18
.LBB111_11:
	movq	-48(%rbp), %rsi                 # 8-byte Reload
	movq	-16(%rbp), %rdi
	callq	_ZZNSt8__format15__do_vformat_toINS_10_Sink_iterIcEEcSt20basic_format_contextIS2_cEEET_S5_St17basic_string_viewIT0_St11char_traitsIS7_EERKSt17basic_format_argsIT1_EPKSt6localeENKUlRS5_E_clIPKcEEDaSJ_
	jmp	.LBB111_18
.LBB111_12:
	movq	-48(%rbp), %rsi                 # 8-byte Reload
	movq	-16(%rbp), %rdi
	callq	_ZZNSt8__format15__do_vformat_toINS_10_Sink_iterIcEEcSt20basic_format_contextIS2_cEEET_S5_St17basic_string_viewIT0_St11char_traitsIS7_EERKSt17basic_format_argsIT1_EPKSt6localeENKUlRS5_E_clIS6_IcS8_IcEEEEDaSJ_
	jmp	.LBB111_18
.LBB111_13:
	movq	-48(%rbp), %rsi                 # 8-byte Reload
	movq	-16(%rbp), %rdi
	callq	_ZZNSt8__format15__do_vformat_toINS_10_Sink_iterIcEEcSt20basic_format_contextIS2_cEEET_S5_St17basic_string_viewIT0_St11char_traitsIS7_EERKSt17basic_format_argsIT1_EPKSt6localeENKUlRS5_E_clIPKvEEDaSJ_
	jmp	.LBB111_18
.LBB111_14:
	movq	-48(%rbp), %rax                 # 8-byte Reload
	movq	%rax, -32(%rbp)
	movq	-16(%rbp), %rdi
	movq	-32(%rbp), %rsi
	callq	_ZZNSt8__format15__do_vformat_toINS_10_Sink_iterIcEEcSt20basic_format_contextIS2_cEEET_S5_St17basic_string_viewIT0_St11char_traitsIS7_EERKSt17basic_format_argsIT1_EPKSt6localeENKUlRS5_E_clINSt16basic_format_argIS4_E6handleEEEDaSJ_
	jmp	.LBB111_18
.LBB111_15:
	movq	-48(%rbp), %rsi                 # 8-byte Reload
	movq	-16(%rbp), %rdi
	callq	_ZZNSt8__format15__do_vformat_toINS_10_Sink_iterIcEEcSt20basic_format_contextIS2_cEEET_S5_St17basic_string_viewIT0_St11char_traitsIS7_EERKSt17basic_format_argsIT1_EPKSt6localeENKUlRS5_E_clInEEDaSJ_
	jmp	.LBB111_18
.LBB111_16:
	movq	-48(%rbp), %rsi                 # 8-byte Reload
	movq	-16(%rbp), %rdi
	callq	_ZZNSt8__format15__do_vformat_toINS_10_Sink_iterIcEEcSt20basic_format_contextIS2_cEEET_S5_St17basic_string_viewIT0_St11char_traitsIS7_EERKSt17basic_format_argsIT1_EPKSt6localeENKUlRS5_E_clIoEEDaSJ_
	jmp	.LBB111_18
# %bb.17:
	.cfi_def_cfa %rsp, 8
	.cfi_restore %rbp
.LBB111_18:
	.cfi_def_cfa %rbp, 16
	.cfi_offset %rbp, -16
	addq	$48, %rsp
	popq	%rbp
	.cfi_def_cfa %rsp, 8
	retq
.Lfunc_end111:
	.size	_ZNSt16basic_format_argISt20basic_format_contextINSt8__format10_Sink_iterIcEEcEE8_M_visitIZNS1_15__do_vformat_toIS3_cS4_EET_S8_St17basic_string_viewIT0_St11char_traitsISA_EERKSt17basic_format_argsIT1_EPKSt6localeEUlRS8_E_EEDcOS8_NS1_6_Arg_tE, .Lfunc_end111-_ZNSt16basic_format_argISt20basic_format_contextINSt8__format10_Sink_iterIcEEcEE8_M_visitIZNS1_15__do_vformat_toIS3_cS4_EET_S8_St17basic_string_viewIT0_St11char_traitsISA_EERKSt17basic_format_argsIT1_EPKSt6localeEUlRS8_E_EEDcOS8_NS1_6_Arg_tE
	.cfi_endproc
